

Microchip Technology PIC LITE Macro Assembler V1.38 build -256452561 
                                                                                               Mon Dec 19 17:15:31 2016

Microchip Technology Omniscient Code Generator v1.38 (Free mode) build 201607010351
     1                           	processor	16F1709
     2                           	opt	pw 120
     3                           	opt	lm
     4                           	psect	stringtext,global,class=STRCODE,delta=2
     5                           	psect	nvBANK0,global,class=BANK0,space=1,delta=1
     6                           	psect	cinit,global,class=CODE,merge=1,delta=2
     7                           	psect	bssCOMMON,global,class=COMMON,space=1,delta=1
     8                           	psect	bssBANK0,global,class=BANK0,space=1,delta=1
     9                           	psect	clrtext,global,class=CODE,delta=2
    10                           	psect	cstackCOMMON,global,class=COMMON,space=1,delta=1
    11                           	psect	cstackBANK0,global,class=BANK0,space=1,delta=1
    12                           	psect	maintext,global,class=CODE,merge=1,split=1,delta=2
    13                           	psect	text1,local,class=CODE,merge=1,delta=2
    14                           	psect	text2,local,class=CODE,merge=1,delta=2
    15                           	psect	text3,local,class=CODE,merge=1,delta=2
    16                           	psect	text4,local,class=CODE,merge=1,delta=2
    17                           	psect	text5,local,class=CODE,merge=1,delta=2
    18                           	psect	text6,local,class=CODE,merge=1,delta=2
    19                           	psect	text7,local,class=CODE,merge=1,delta=2
    20                           	psect	text8,local,class=CODE,merge=1,delta=2
    21                           	psect	text9,local,class=CODE,merge=1,delta=2
    22                           	psect	text10,local,class=CODE,merge=1,delta=2
    23                           	psect	text11,local,class=CODE,merge=1,delta=2
    24                           	psect	text12,local,class=CODE,merge=1,delta=2
    25                           	psect	text13,local,class=CODE,merge=1,delta=2
    26                           	psect	intentry,global,class=CODE,delta=2
    27                           	dabs	1,0x7E,2
    28  0000                     	;# 
    29  0001                     	;# 
    30  0002                     	;# 
    31  0003                     	;# 
    32  0004                     	;# 
    33  0005                     	;# 
    34  0006                     	;# 
    35  0007                     	;# 
    36  0008                     	;# 
    37  0009                     	;# 
    38  000A                     	;# 
    39  000B                     	;# 
    40  000C                     	;# 
    41  000D                     	;# 
    42  000E                     	;# 
    43  0011                     	;# 
    44  0012                     	;# 
    45  0013                     	;# 
    46  0015                     	;# 
    47  0016                     	;# 
    48  0016                     	;# 
    49  0017                     	;# 
    50  0018                     	;# 
    51  0019                     	;# 
    52  001A                     	;# 
    53  001B                     	;# 
    54  001C                     	;# 
    55  008C                     	;# 
    56  008D                     	;# 
    57  008E                     	;# 
    58  0091                     	;# 
    59  0092                     	;# 
    60  0093                     	;# 
    61  0095                     	;# 
    62  0096                     	;# 
    63  0097                     	;# 
    64  0098                     	;# 
    65  0099                     	;# 
    66  009A                     	;# 
    67  009B                     	;# 
    68  009B                     	;# 
    69  009C                     	;# 
    70  009D                     	;# 
    71  009E                     	;# 
    72  009F                     	;# 
    73  010C                     	;# 
    74  010D                     	;# 
    75  010E                     	;# 
    76  0111                     	;# 
    77  0112                     	;# 
    78  0113                     	;# 
    79  0114                     	;# 
    80  0115                     	;# 
    81  0116                     	;# 
    82  0117                     	;# 
    83  0118                     	;# 
    84  0119                     	;# 
    85  011C                     	;# 
    86  018C                     	;# 
    87  018D                     	;# 
    88  018E                     	;# 
    89  0191                     	;# 
    90  0191                     	;# 
    91  0192                     	;# 
    92  0193                     	;# 
    93  0193                     	;# 
    94  0194                     	;# 
    95  0195                     	;# 
    96  0196                     	;# 
    97  0197                     	;# 
    98  0199                     	;# 
    99  0199                     	;# 
   100  0199                     	;# 
   101  019A                     	;# 
   102  019A                     	;# 
   103  019A                     	;# 
   104  019B                     	;# 
   105  019B                     	;# 
   106  019B                     	;# 
   107  019B                     	;# 
   108  019B                     	;# 
   109  019C                     	;# 
   110  019C                     	;# 
   111  019C                     	;# 
   112  019D                     	;# 
   113  019D                     	;# 
   114  019D                     	;# 
   115  019E                     	;# 
   116  019E                     	;# 
   117  019E                     	;# 
   118  019F                     	;# 
   119  019F                     	;# 
   120  019F                     	;# 
   121  019F                     	;# 
   122  019F                     	;# 
   123  020C                     	;# 
   124  020D                     	;# 
   125  020E                     	;# 
   126  0211                     	;# 
   127  0211                     	;# 
   128  0212                     	;# 
   129  0212                     	;# 
   130  0213                     	;# 
   131  0213                     	;# 
   132  0214                     	;# 
   133  0214                     	;# 
   134  0215                     	;# 
   135  0215                     	;# 
   136  0215                     	;# 
   137  0215                     	;# 
   138  0216                     	;# 
   139  0216                     	;# 
   140  0217                     	;# 
   141  0217                     	;# 
   142  028C                     	;# 
   143  028D                     	;# 
   144  028E                     	;# 
   145  0291                     	;# 
   146  0291                     	;# 
   147  0292                     	;# 
   148  0293                     	;# 
   149  0293                     	;# 
   150  0298                     	;# 
   151  0298                     	;# 
   152  0299                     	;# 
   153  029A                     	;# 
   154  029A                     	;# 
   155  029E                     	;# 
   156  030C                     	;# 
   157  030D                     	;# 
   158  030E                     	;# 
   159  038C                     	;# 
   160  038D                     	;# 
   161  038E                     	;# 
   162  0391                     	;# 
   163  0392                     	;# 
   164  0393                     	;# 
   165  0394                     	;# 
   166  0395                     	;# 
   167  0396                     	;# 
   168  0397                     	;# 
   169  0398                     	;# 
   170  0399                     	;# 
   171  0415                     	;# 
   172  0416                     	;# 
   173  0417                     	;# 
   174  041C                     	;# 
   175  041D                     	;# 
   176  041E                     	;# 
   177  0511                     	;# 
   178  0515                     	;# 
   179  0617                     	;# 
   180  0618                     	;# 
   181  0619                     	;# 
   182  0619                     	;# 
   183  061A                     	;# 
   184  061B                     	;# 
   185  061C                     	;# 
   186  061C                     	;# 
   187  0691                     	;# 
   188  0692                     	;# 
   189  0693                     	;# 
   190  0694                     	;# 
   191  0695                     	;# 
   192  0696                     	;# 
   193  0697                     	;# 
   194  0698                     	;# 
   195  0699                     	;# 
   196  069A                     	;# 
   197  069B                     	;# 
   198  069C                     	;# 
   199  069D                     	;# 
   200  069E                     	;# 
   201  069F                     	;# 
   202  0E0F                     	;# 
   203  0E10                     	;# 
   204  0E11                     	;# 
   205  0E12                     	;# 
   206  0E13                     	;# 
   207  0E14                     	;# 
   208  0E15                     	;# 
   209  0E17                     	;# 
   210  0E20                     	;# 
   211  0E21                     	;# 
   212  0E22                     	;# 
   213  0E24                     	;# 
   214  0E25                     	;# 
   215  0E28                     	;# 
   216  0E29                     	;# 
   217  0E2A                     	;# 
   218  0E2B                     	;# 
   219  0E90                     	;# 
   220  0E91                     	;# 
   221  0E92                     	;# 
   222  0E94                     	;# 
   223  0E95                     	;# 
   224  0E9C                     	;# 
   225  0E9D                     	;# 
   226  0E9E                     	;# 
   227  0E9F                     	;# 
   228  0EA0                     	;# 
   229  0EA1                     	;# 
   230  0EA2                     	;# 
   231  0EA3                     	;# 
   232  0EA4                     	;# 
   233  0EA5                     	;# 
   234  0EA6                     	;# 
   235  0EA7                     	;# 
   236  0F0F                     	;# 
   237  0F10                     	;# 
   238  0F11                     	;# 
   239  0F12                     	;# 
   240  0F13                     	;# 
   241  0F14                     	;# 
   242  0F15                     	;# 
   243  0F16                     	;# 
   244  0F17                     	;# 
   245  0F18                     	;# 
   246  0F19                     	;# 
   247  0F1A                     	;# 
   248  0F1B                     	;# 
   249  0F1C                     	;# 
   250  0F1D                     	;# 
   251  0F1E                     	;# 
   252  0F1F                     	;# 
   253  0F20                     	;# 
   254  0F21                     	;# 
   255  0F22                     	;# 
   256  0F23                     	;# 
   257  0F24                     	;# 
   258  0F25                     	;# 
   259  0F26                     	;# 
   260  0F27                     	;# 
   261  0F28                     	;# 
   262  0F29                     	;# 
   263  0F2A                     	;# 
   264  0F2B                     	;# 
   265  0F2C                     	;# 
   266  0F2D                     	;# 
   267  0F9E                     	;# 
   268  0FE4                     	;# 
   269  0FE5                     	;# 
   270  0FE6                     	;# 
   271  0FE7                     	;# 
   272  0FE8                     	;# 
   273  0FE9                     	;# 
   274  0FEA                     	;# 
   275  0FEB                     	;# 
   276  0FED                     	;# 
   277  0FEE                     	;# 
   278  0FEF                     	;# 
   279  0000                     	;# 
   280  0001                     	;# 
   281  0002                     	;# 
   282  0003                     	;# 
   283  0004                     	;# 
   284  0005                     	;# 
   285  0006                     	;# 
   286  0007                     	;# 
   287  0008                     	;# 
   288  0009                     	;# 
   289  000A                     	;# 
   290  000B                     	;# 
   291  000C                     	;# 
   292  000D                     	;# 
   293  000E                     	;# 
   294  0011                     	;# 
   295  0012                     	;# 
   296  0013                     	;# 
   297  0015                     	;# 
   298  0016                     	;# 
   299  0016                     	;# 
   300  0017                     	;# 
   301  0018                     	;# 
   302  0019                     	;# 
   303  001A                     	;# 
   304  001B                     	;# 
   305  001C                     	;# 
   306  008C                     	;# 
   307  008D                     	;# 
   308  008E                     	;# 
   309  0091                     	;# 
   310  0092                     	;# 
   311  0093                     	;# 
   312  0095                     	;# 
   313  0096                     	;# 
   314  0097                     	;# 
   315  0098                     	;# 
   316  0099                     	;# 
   317  009A                     	;# 
   318  009B                     	;# 
   319  009B                     	;# 
   320  009C                     	;# 
   321  009D                     	;# 
   322  009E                     	;# 
   323  009F                     	;# 
   324  010C                     	;# 
   325  010D                     	;# 
   326  010E                     	;# 
   327  0111                     	;# 
   328  0112                     	;# 
   329  0113                     	;# 
   330  0114                     	;# 
   331  0115                     	;# 
   332  0116                     	;# 
   333  0117                     	;# 
   334  0118                     	;# 
   335  0119                     	;# 
   336  011C                     	;# 
   337  018C                     	;# 
   338  018D                     	;# 
   339  018E                     	;# 
   340  0191                     	;# 
   341  0191                     	;# 
   342  0192                     	;# 
   343  0193                     	;# 
   344  0193                     	;# 
   345  0194                     	;# 
   346  0195                     	;# 
   347  0196                     	;# 
   348  0197                     	;# 
   349  0199                     	;# 
   350  0199                     	;# 
   351  0199                     	;# 
   352  019A                     	;# 
   353  019A                     	;# 
   354  019A                     	;# 
   355  019B                     	;# 
   356  019B                     	;# 
   357  019B                     	;# 
   358  019B                     	;# 
   359  019B                     	;# 
   360  019C                     	;# 
   361  019C                     	;# 
   362  019C                     	;# 
   363  019D                     	;# 
   364  019D                     	;# 
   365  019D                     	;# 
   366  019E                     	;# 
   367  019E                     	;# 
   368  019E                     	;# 
   369  019F                     	;# 
   370  019F                     	;# 
   371  019F                     	;# 
   372  019F                     	;# 
   373  019F                     	;# 
   374  020C                     	;# 
   375  020D                     	;# 
   376  020E                     	;# 
   377  0211                     	;# 
   378  0211                     	;# 
   379  0212                     	;# 
   380  0212                     	;# 
   381  0213                     	;# 
   382  0213                     	;# 
   383  0214                     	;# 
   384  0214                     	;# 
   385  0215                     	;# 
   386  0215                     	;# 
   387  0215                     	;# 
   388  0215                     	;# 
   389  0216                     	;# 
   390  0216                     	;# 
   391  0217                     	;# 
   392  0217                     	;# 
   393  028C                     	;# 
   394  028D                     	;# 
   395  028E                     	;# 
   396  0291                     	;# 
   397  0291                     	;# 
   398  0292                     	;# 
   399  0293                     	;# 
   400  0293                     	;# 
   401  0298                     	;# 
   402  0298                     	;# 
   403  0299                     	;# 
   404  029A                     	;# 
   405  029A                     	;# 
   406  029E                     	;# 
   407  030C                     	;# 
   408  030D                     	;# 
   409  030E                     	;# 
   410  038C                     	;# 
   411  038D                     	;# 
   412  038E                     	;# 
   413  0391                     	;# 
   414  0392                     	;# 
   415  0393                     	;# 
   416  0394                     	;# 
   417  0395                     	;# 
   418  0396                     	;# 
   419  0397                     	;# 
   420  0398                     	;# 
   421  0399                     	;# 
   422  0415                     	;# 
   423  0416                     	;# 
   424  0417                     	;# 
   425  041C                     	;# 
   426  041D                     	;# 
   427  041E                     	;# 
   428  0511                     	;# 
   429  0515                     	;# 
   430  0617                     	;# 
   431  0618                     	;# 
   432  0619                     	;# 
   433  0619                     	;# 
   434  061A                     	;# 
   435  061B                     	;# 
   436  061C                     	;# 
   437  061C                     	;# 
   438  0691                     	;# 
   439  0692                     	;# 
   440  0693                     	;# 
   441  0694                     	;# 
   442  0695                     	;# 
   443  0696                     	;# 
   444  0697                     	;# 
   445  0698                     	;# 
   446  0699                     	;# 
   447  069A                     	;# 
   448  069B                     	;# 
   449  069C                     	;# 
   450  069D                     	;# 
   451  069E                     	;# 
   452  069F                     	;# 
   453  0E0F                     	;# 
   454  0E10                     	;# 
   455  0E11                     	;# 
   456  0E12                     	;# 
   457  0E13                     	;# 
   458  0E14                     	;# 
   459  0E15                     	;# 
   460  0E17                     	;# 
   461  0E20                     	;# 
   462  0E21                     	;# 
   463  0E22                     	;# 
   464  0E24                     	;# 
   465  0E25                     	;# 
   466  0E28                     	;# 
   467  0E29                     	;# 
   468  0E2A                     	;# 
   469  0E2B                     	;# 
   470  0E90                     	;# 
   471  0E91                     	;# 
   472  0E92                     	;# 
   473  0E94                     	;# 
   474  0E95                     	;# 
   475  0E9C                     	;# 
   476  0E9D                     	;# 
   477  0E9E                     	;# 
   478  0E9F                     	;# 
   479  0EA0                     	;# 
   480  0EA1                     	;# 
   481  0EA2                     	;# 
   482  0EA3                     	;# 
   483  0EA4                     	;# 
   484  0EA5                     	;# 
   485  0EA6                     	;# 
   486  0EA7                     	;# 
   487  0F0F                     	;# 
   488  0F10                     	;# 
   489  0F11                     	;# 
   490  0F12                     	;# 
   491  0F13                     	;# 
   492  0F14                     	;# 
   493  0F15                     	;# 
   494  0F16                     	;# 
   495  0F17                     	;# 
   496  0F18                     	;# 
   497  0F19                     	;# 
   498  0F1A                     	;# 
   499  0F1B                     	;# 
   500  0F1C                     	;# 
   501  0F1D                     	;# 
   502  0F1E                     	;# 
   503  0F1F                     	;# 
   504  0F20                     	;# 
   505  0F21                     	;# 
   506  0F22                     	;# 
   507  0F23                     	;# 
   508  0F24                     	;# 
   509  0F25                     	;# 
   510  0F26                     	;# 
   511  0F27                     	;# 
   512  0F28                     	;# 
   513  0F29                     	;# 
   514  0F2A                     	;# 
   515  0F2B                     	;# 
   516  0F2C                     	;# 
   517  0F2D                     	;# 
   518  0F9E                     	;# 
   519  0FE4                     	;# 
   520  0FE5                     	;# 
   521  0FE6                     	;# 
   522  0FE7                     	;# 
   523  0FE8                     	;# 
   524  0FE9                     	;# 
   525  0FEA                     	;# 
   526  0FEB                     	;# 
   527  0FED                     	;# 
   528  0FEE                     	;# 
   529  0FEF                     	;# 
   530  0000                     	;# 
   531  0001                     	;# 
   532  0002                     	;# 
   533  0003                     	;# 
   534  0004                     	;# 
   535  0005                     	;# 
   536  0006                     	;# 
   537  0007                     	;# 
   538  0008                     	;# 
   539  0009                     	;# 
   540  000A                     	;# 
   541  000B                     	;# 
   542  000C                     	;# 
   543  000D                     	;# 
   544  000E                     	;# 
   545  0011                     	;# 
   546  0012                     	;# 
   547  0013                     	;# 
   548  0015                     	;# 
   549  0016                     	;# 
   550  0016                     	;# 
   551  0017                     	;# 
   552  0018                     	;# 
   553  0019                     	;# 
   554  001A                     	;# 
   555  001B                     	;# 
   556  001C                     	;# 
   557  008C                     	;# 
   558  008D                     	;# 
   559  008E                     	;# 
   560  0091                     	;# 
   561  0092                     	;# 
   562  0093                     	;# 
   563  0095                     	;# 
   564  0096                     	;# 
   565  0097                     	;# 
   566  0098                     	;# 
   567  0099                     	;# 
   568  009A                     	;# 
   569  009B                     	;# 
   570  009B                     	;# 
   571  009C                     	;# 
   572  009D                     	;# 
   573  009E                     	;# 
   574  009F                     	;# 
   575  010C                     	;# 
   576  010D                     	;# 
   577  010E                     	;# 
   578  0111                     	;# 
   579  0112                     	;# 
   580  0113                     	;# 
   581  0114                     	;# 
   582  0115                     	;# 
   583  0116                     	;# 
   584  0117                     	;# 
   585  0118                     	;# 
   586  0119                     	;# 
   587  011C                     	;# 
   588  018C                     	;# 
   589  018D                     	;# 
   590  018E                     	;# 
   591  0191                     	;# 
   592  0191                     	;# 
   593  0192                     	;# 
   594  0193                     	;# 
   595  0193                     	;# 
   596  0194                     	;# 
   597  0195                     	;# 
   598  0196                     	;# 
   599  0197                     	;# 
   600  0199                     	;# 
   601  0199                     	;# 
   602  0199                     	;# 
   603  019A                     	;# 
   604  019A                     	;# 
   605  019A                     	;# 
   606  019B                     	;# 
   607  019B                     	;# 
   608  019B                     	;# 
   609  019B                     	;# 
   610  019B                     	;# 
   611  019C                     	;# 
   612  019C                     	;# 
   613  019C                     	;# 
   614  019D                     	;# 
   615  019D                     	;# 
   616  019D                     	;# 
   617  019E                     	;# 
   618  019E                     	;# 
   619  019E                     	;# 
   620  019F                     	;# 
   621  019F                     	;# 
   622  019F                     	;# 
   623  019F                     	;# 
   624  019F                     	;# 
   625  020C                     	;# 
   626  020D                     	;# 
   627  020E                     	;# 
   628  0211                     	;# 
   629  0211                     	;# 
   630  0212                     	;# 
   631  0212                     	;# 
   632  0213                     	;# 
   633  0213                     	;# 
   634  0214                     	;# 
   635  0214                     	;# 
   636  0215                     	;# 
   637  0215                     	;# 
   638  0215                     	;# 
   639  0215                     	;# 
   640  0216                     	;# 
   641  0216                     	;# 
   642  0217                     	;# 
   643  0217                     	;# 
   644  028C                     	;# 
   645  028D                     	;# 
   646  028E                     	;# 
   647  0291                     	;# 
   648  0291                     	;# 
   649  0292                     	;# 
   650  0293                     	;# 
   651  0293                     	;# 
   652  0298                     	;# 
   653  0298                     	;# 
   654  0299                     	;# 
   655  029A                     	;# 
   656  029A                     	;# 
   657  029E                     	;# 
   658  030C                     	;# 
   659  030D                     	;# 
   660  030E                     	;# 
   661  038C                     	;# 
   662  038D                     	;# 
   663  038E                     	;# 
   664  0391                     	;# 
   665  0392                     	;# 
   666  0393                     	;# 
   667  0394                     	;# 
   668  0395                     	;# 
   669  0396                     	;# 
   670  0397                     	;# 
   671  0398                     	;# 
   672  0399                     	;# 
   673  0415                     	;# 
   674  0416                     	;# 
   675  0417                     	;# 
   676  041C                     	;# 
   677  041D                     	;# 
   678  041E                     	;# 
   679  0511                     	;# 
   680  0515                     	;# 
   681  0617                     	;# 
   682  0618                     	;# 
   683  0619                     	;# 
   684  0619                     	;# 
   685  061A                     	;# 
   686  061B                     	;# 
   687  061C                     	;# 
   688  061C                     	;# 
   689  0691                     	;# 
   690  0692                     	;# 
   691  0693                     	;# 
   692  0694                     	;# 
   693  0695                     	;# 
   694  0696                     	;# 
   695  0697                     	;# 
   696  0698                     	;# 
   697  0699                     	;# 
   698  069A                     	;# 
   699  069B                     	;# 
   700  069C                     	;# 
   701  069D                     	;# 
   702  069E                     	;# 
   703  069F                     	;# 
   704  0E0F                     	;# 
   705  0E10                     	;# 
   706  0E11                     	;# 
   707  0E12                     	;# 
   708  0E13                     	;# 
   709  0E14                     	;# 
   710  0E15                     	;# 
   711  0E17                     	;# 
   712  0E20                     	;# 
   713  0E21                     	;# 
   714  0E22                     	;# 
   715  0E24                     	;# 
   716  0E25                     	;# 
   717  0E28                     	;# 
   718  0E29                     	;# 
   719  0E2A                     	;# 
   720  0E2B                     	;# 
   721  0E90                     	;# 
   722  0E91                     	;# 
   723  0E92                     	;# 
   724  0E94                     	;# 
   725  0E95                     	;# 
   726  0E9C                     	;# 
   727  0E9D                     	;# 
   728  0E9E                     	;# 
   729  0E9F                     	;# 
   730  0EA0                     	;# 
   731  0EA1                     	;# 
   732  0EA2                     	;# 
   733  0EA3                     	;# 
   734  0EA4                     	;# 
   735  0EA5                     	;# 
   736  0EA6                     	;# 
   737  0EA7                     	;# 
   738  0F0F                     	;# 
   739  0F10                     	;# 
   740  0F11                     	;# 
   741  0F12                     	;# 
   742  0F13                     	;# 
   743  0F14                     	;# 
   744  0F15                     	;# 
   745  0F16                     	;# 
   746  0F17                     	;# 
   747  0F18                     	;# 
   748  0F19                     	;# 
   749  0F1A                     	;# 
   750  0F1B                     	;# 
   751  0F1C                     	;# 
   752  0F1D                     	;# 
   753  0F1E                     	;# 
   754  0F1F                     	;# 
   755  0F20                     	;# 
   756  0F21                     	;# 
   757  0F22                     	;# 
   758  0F23                     	;# 
   759  0F24                     	;# 
   760  0F25                     	;# 
   761  0F26                     	;# 
   762  0F27                     	;# 
   763  0F28                     	;# 
   764  0F29                     	;# 
   765  0F2A                     	;# 
   766  0F2B                     	;# 
   767  0F2C                     	;# 
   768  0F2D                     	;# 
   769  0F9E                     	;# 
   770  0FE4                     	;# 
   771  0FE5                     	;# 
   772  0FE6                     	;# 
   773  0FE7                     	;# 
   774  0FE8                     	;# 
   775  0FE9                     	;# 
   776  0FEA                     	;# 
   777  0FEB                     	;# 
   778  0FED                     	;# 
   779  0FEE                     	;# 
   780  0FEF                     	;# 
   781  0000                     	;# 
   782  0001                     	;# 
   783  0002                     	;# 
   784  0003                     	;# 
   785  0004                     	;# 
   786  0005                     	;# 
   787  0006                     	;# 
   788  0007                     	;# 
   789  0008                     	;# 
   790  0009                     	;# 
   791  000A                     	;# 
   792  000B                     	;# 
   793  000C                     	;# 
   794  000D                     	;# 
   795  000E                     	;# 
   796  0011                     	;# 
   797  0012                     	;# 
   798  0013                     	;# 
   799  0015                     	;# 
   800  0016                     	;# 
   801  0016                     	;# 
   802  0017                     	;# 
   803  0018                     	;# 
   804  0019                     	;# 
   805  001A                     	;# 
   806  001B                     	;# 
   807  001C                     	;# 
   808  008C                     	;# 
   809  008D                     	;# 
   810  008E                     	;# 
   811  0091                     	;# 
   812  0092                     	;# 
   813  0093                     	;# 
   814  0095                     	;# 
   815  0096                     	;# 
   816  0097                     	;# 
   817  0098                     	;# 
   818  0099                     	;# 
   819  009A                     	;# 
   820  009B                     	;# 
   821  009B                     	;# 
   822  009C                     	;# 
   823  009D                     	;# 
   824  009E                     	;# 
   825  009F                     	;# 
   826  010C                     	;# 
   827  010D                     	;# 
   828  010E                     	;# 
   829  0111                     	;# 
   830  0112                     	;# 
   831  0113                     	;# 
   832  0114                     	;# 
   833  0115                     	;# 
   834  0116                     	;# 
   835  0117                     	;# 
   836  0118                     	;# 
   837  0119                     	;# 
   838  011C                     	;# 
   839  018C                     	;# 
   840  018D                     	;# 
   841  018E                     	;# 
   842  0191                     	;# 
   843  0191                     	;# 
   844  0192                     	;# 
   845  0193                     	;# 
   846  0193                     	;# 
   847  0194                     	;# 
   848  0195                     	;# 
   849  0196                     	;# 
   850  0197                     	;# 
   851  0199                     	;# 
   852  0199                     	;# 
   853  0199                     	;# 
   854  019A                     	;# 
   855  019A                     	;# 
   856  019A                     	;# 
   857  019B                     	;# 
   858  019B                     	;# 
   859  019B                     	;# 
   860  019B                     	;# 
   861  019B                     	;# 
   862  019C                     	;# 
   863  019C                     	;# 
   864  019C                     	;# 
   865  019D                     	;# 
   866  019D                     	;# 
   867  019D                     	;# 
   868  019E                     	;# 
   869  019E                     	;# 
   870  019E                     	;# 
   871  019F                     	;# 
   872  019F                     	;# 
   873  019F                     	;# 
   874  019F                     	;# 
   875  019F                     	;# 
   876  020C                     	;# 
   877  020D                     	;# 
   878  020E                     	;# 
   879  0211                     	;# 
   880  0211                     	;# 
   881  0212                     	;# 
   882  0212                     	;# 
   883  0213                     	;# 
   884  0213                     	;# 
   885  0214                     	;# 
   886  0214                     	;# 
   887  0215                     	;# 
   888  0215                     	;# 
   889  0215                     	;# 
   890  0215                     	;# 
   891  0216                     	;# 
   892  0216                     	;# 
   893  0217                     	;# 
   894  0217                     	;# 
   895  028C                     	;# 
   896  028D                     	;# 
   897  028E                     	;# 
   898  0291                     	;# 
   899  0291                     	;# 
   900  0292                     	;# 
   901  0293                     	;# 
   902  0293                     	;# 
   903  0298                     	;# 
   904  0298                     	;# 
   905  0299                     	;# 
   906  029A                     	;# 
   907  029A                     	;# 
   908  029E                     	;# 
   909  030C                     	;# 
   910  030D                     	;# 
   911  030E                     	;# 
   912  038C                     	;# 
   913  038D                     	;# 
   914  038E                     	;# 
   915  0391                     	;# 
   916  0392                     	;# 
   917  0393                     	;# 
   918  0394                     	;# 
   919  0395                     	;# 
   920  0396                     	;# 
   921  0397                     	;# 
   922  0398                     	;# 
   923  0399                     	;# 
   924  0415                     	;# 
   925  0416                     	;# 
   926  0417                     	;# 
   927  041C                     	;# 
   928  041D                     	;# 
   929  041E                     	;# 
   930  0511                     	;# 
   931  0515                     	;# 
   932  0617                     	;# 
   933  0618                     	;# 
   934  0619                     	;# 
   935  0619                     	;# 
   936  061A                     	;# 
   937  061B                     	;# 
   938  061C                     	;# 
   939  061C                     	;# 
   940  0691                     	;# 
   941  0692                     	;# 
   942  0693                     	;# 
   943  0694                     	;# 
   944  0695                     	;# 
   945  0696                     	;# 
   946  0697                     	;# 
   947  0698                     	;# 
   948  0699                     	;# 
   949  069A                     	;# 
   950  069B                     	;# 
   951  069C                     	;# 
   952  069D                     	;# 
   953  069E                     	;# 
   954  069F                     	;# 
   955  0E0F                     	;# 
   956  0E10                     	;# 
   957  0E11                     	;# 
   958  0E12                     	;# 
   959  0E13                     	;# 
   960  0E14                     	;# 
   961  0E15                     	;# 
   962  0E17                     	;# 
   963  0E20                     	;# 
   964  0E21                     	;# 
   965  0E22                     	;# 
   966  0E24                     	;# 
   967  0E25                     	;# 
   968  0E28                     	;# 
   969  0E29                     	;# 
   970  0E2A                     	;# 
   971  0E2B                     	;# 
   972  0E90                     	;# 
   973  0E91                     	;# 
   974  0E92                     	;# 
   975  0E94                     	;# 
   976  0E95                     	;# 
   977  0E9C                     	;# 
   978  0E9D                     	;# 
   979  0E9E                     	;# 
   980  0E9F                     	;# 
   981  0EA0                     	;# 
   982  0EA1                     	;# 
   983  0EA2                     	;# 
   984  0EA3                     	;# 
   985  0EA4                     	;# 
   986  0EA5                     	;# 
   987  0EA6                     	;# 
   988  0EA7                     	;# 
   989  0F0F                     	;# 
   990  0F10                     	;# 
   991  0F11                     	;# 
   992  0F12                     	;# 
   993  0F13                     	;# 
   994  0F14                     	;# 
   995  0F15                     	;# 
   996  0F16                     	;# 
   997  0F17                     	;# 
   998  0F18                     	;# 
   999  0F19                     	;# 
  1000  0F1A                     	;# 
  1001  0F1B                     	;# 
  1002  0F1C                     	;# 
  1003  0F1D                     	;# 
  1004  0F1E                     	;# 
  1005  0F1F                     	;# 
  1006  0F20                     	;# 
  1007  0F21                     	;# 
  1008  0F22                     	;# 
  1009  0F23                     	;# 
  1010  0F24                     	;# 
  1011  0F25                     	;# 
  1012  0F26                     	;# 
  1013  0F27                     	;# 
  1014  0F28                     	;# 
  1015  0F29                     	;# 
  1016  0F2A                     	;# 
  1017  0F2B                     	;# 
  1018  0F2C                     	;# 
  1019  0F2D                     	;# 
  1020  0F9E                     	;# 
  1021  0FE4                     	;# 
  1022  0FE5                     	;# 
  1023  0FE6                     	;# 
  1024  0FE7                     	;# 
  1025  0FE8                     	;# 
  1026  0FE9                     	;# 
  1027  0FEA                     	;# 
  1028  0FEB                     	;# 
  1029  0FED                     	;# 
  1030  0FEE                     	;# 
  1031  0FEF                     	;# 
  1032  0000                     	;# 
  1033  0001                     	;# 
  1034  0002                     	;# 
  1035  0003                     	;# 
  1036  0004                     	;# 
  1037  0005                     	;# 
  1038  0006                     	;# 
  1039  0007                     	;# 
  1040  0008                     	;# 
  1041  0009                     	;# 
  1042  000A                     	;# 
  1043  000B                     	;# 
  1044  000C                     	;# 
  1045  000D                     	;# 
  1046  000E                     	;# 
  1047  0011                     	;# 
  1048  0012                     	;# 
  1049  0013                     	;# 
  1050  0015                     	;# 
  1051  0016                     	;# 
  1052  0016                     	;# 
  1053  0017                     	;# 
  1054  0018                     	;# 
  1055  0019                     	;# 
  1056  001A                     	;# 
  1057  001B                     	;# 
  1058  001C                     	;# 
  1059  008C                     	;# 
  1060  008D                     	;# 
  1061  008E                     	;# 
  1062  0091                     	;# 
  1063  0092                     	;# 
  1064  0093                     	;# 
  1065  0095                     	;# 
  1066  0096                     	;# 
  1067  0097                     	;# 
  1068  0098                     	;# 
  1069  0099                     	;# 
  1070  009A                     	;# 
  1071  009B                     	;# 
  1072  009B                     	;# 
  1073  009C                     	;# 
  1074  009D                     	;# 
  1075  009E                     	;# 
  1076  009F                     	;# 
  1077  010C                     	;# 
  1078  010D                     	;# 
  1079  010E                     	;# 
  1080  0111                     	;# 
  1081  0112                     	;# 
  1082  0113                     	;# 
  1083  0114                     	;# 
  1084  0115                     	;# 
  1085  0116                     	;# 
  1086  0117                     	;# 
  1087  0118                     	;# 
  1088  0119                     	;# 
  1089  011C                     	;# 
  1090  018C                     	;# 
  1091  018D                     	;# 
  1092  018E                     	;# 
  1093  0191                     	;# 
  1094  0191                     	;# 
  1095  0192                     	;# 
  1096  0193                     	;# 
  1097  0193                     	;# 
  1098  0194                     	;# 
  1099  0195                     	;# 
  1100  0196                     	;# 
  1101  0197                     	;# 
  1102  0199                     	;# 
  1103  0199                     	;# 
  1104  0199                     	;# 
  1105  019A                     	;# 
  1106  019A                     	;# 
  1107  019A                     	;# 
  1108  019B                     	;# 
  1109  019B                     	;# 
  1110  019B                     	;# 
  1111  019B                     	;# 
  1112  019B                     	;# 
  1113  019C                     	;# 
  1114  019C                     	;# 
  1115  019C                     	;# 
  1116  019D                     	;# 
  1117  019D                     	;# 
  1118  019D                     	;# 
  1119  019E                     	;# 
  1120  019E                     	;# 
  1121  019E                     	;# 
  1122  019F                     	;# 
  1123  019F                     	;# 
  1124  019F                     	;# 
  1125  019F                     	;# 
  1126  019F                     	;# 
  1127  020C                     	;# 
  1128  020D                     	;# 
  1129  020E                     	;# 
  1130  0211                     	;# 
  1131  0211                     	;# 
  1132  0212                     	;# 
  1133  0212                     	;# 
  1134  0213                     	;# 
  1135  0213                     	;# 
  1136  0214                     	;# 
  1137  0214                     	;# 
  1138  0215                     	;# 
  1139  0215                     	;# 
  1140  0215                     	;# 
  1141  0215                     	;# 
  1142  0216                     	;# 
  1143  0216                     	;# 
  1144  0217                     	;# 
  1145  0217                     	;# 
  1146  028C                     	;# 
  1147  028D                     	;# 
  1148  028E                     	;# 
  1149  0291                     	;# 
  1150  0291                     	;# 
  1151  0292                     	;# 
  1152  0293                     	;# 
  1153  0293                     	;# 
  1154  0298                     	;# 
  1155  0298                     	;# 
  1156  0299                     	;# 
  1157  029A                     	;# 
  1158  029A                     	;# 
  1159  029E                     	;# 
  1160  030C                     	;# 
  1161  030D                     	;# 
  1162  030E                     	;# 
  1163  038C                     	;# 
  1164  038D                     	;# 
  1165  038E                     	;# 
  1166  0391                     	;# 
  1167  0392                     	;# 
  1168  0393                     	;# 
  1169  0394                     	;# 
  1170  0395                     	;# 
  1171  0396                     	;# 
  1172  0397                     	;# 
  1173  0398                     	;# 
  1174  0399                     	;# 
  1175  0415                     	;# 
  1176  0416                     	;# 
  1177  0417                     	;# 
  1178  041C                     	;# 
  1179  041D                     	;# 
  1180  041E                     	;# 
  1181  0511                     	;# 
  1182  0515                     	;# 
  1183  0617                     	;# 
  1184  0618                     	;# 
  1185  0619                     	;# 
  1186  0619                     	;# 
  1187  061A                     	;# 
  1188  061B                     	;# 
  1189  061C                     	;# 
  1190  061C                     	;# 
  1191  0691                     	;# 
  1192  0692                     	;# 
  1193  0693                     	;# 
  1194  0694                     	;# 
  1195  0695                     	;# 
  1196  0696                     	;# 
  1197  0697                     	;# 
  1198  0698                     	;# 
  1199  0699                     	;# 
  1200  069A                     	;# 
  1201  069B                     	;# 
  1202  069C                     	;# 
  1203  069D                     	;# 
  1204  069E                     	;# 
  1205  069F                     	;# 
  1206  0E0F                     	;# 
  1207  0E10                     	;# 
  1208  0E11                     	;# 
  1209  0E12                     	;# 
  1210  0E13                     	;# 
  1211  0E14                     	;# 
  1212  0E15                     	;# 
  1213  0E17                     	;# 
  1214  0E20                     	;# 
  1215  0E21                     	;# 
  1216  0E22                     	;# 
  1217  0E24                     	;# 
  1218  0E25                     	;# 
  1219  0E28                     	;# 
  1220  0E29                     	;# 
  1221  0E2A                     	;# 
  1222  0E2B                     	;# 
  1223  0E90                     	;# 
  1224  0E91                     	;# 
  1225  0E92                     	;# 
  1226  0E94                     	;# 
  1227  0E95                     	;# 
  1228  0E9C                     	;# 
  1229  0E9D                     	;# 
  1230  0E9E                     	;# 
  1231  0E9F                     	;# 
  1232  0EA0                     	;# 
  1233  0EA1                     	;# 
  1234  0EA2                     	;# 
  1235  0EA3                     	;# 
  1236  0EA4                     	;# 
  1237  0EA5                     	;# 
  1238  0EA6                     	;# 
  1239  0EA7                     	;# 
  1240  0F0F                     	;# 
  1241  0F10                     	;# 
  1242  0F11                     	;# 
  1243  0F12                     	;# 
  1244  0F13                     	;# 
  1245  0F14                     	;# 
  1246  0F15                     	;# 
  1247  0F16                     	;# 
  1248  0F17                     	;# 
  1249  0F18                     	;# 
  1250  0F19                     	;# 
  1251  0F1A                     	;# 
  1252  0F1B                     	;# 
  1253  0F1C                     	;# 
  1254  0F1D                     	;# 
  1255  0F1E                     	;# 
  1256  0F1F                     	;# 
  1257  0F20                     	;# 
  1258  0F21                     	;# 
  1259  0F22                     	;# 
  1260  0F23                     	;# 
  1261  0F24                     	;# 
  1262  0F25                     	;# 
  1263  0F26                     	;# 
  1264  0F27                     	;# 
  1265  0F28                     	;# 
  1266  0F29                     	;# 
  1267  0F2A                     	;# 
  1268  0F2B                     	;# 
  1269  0F2C                     	;# 
  1270  0F2D                     	;# 
  1271  0F9E                     	;# 
  1272  0FE4                     	;# 
  1273  0FE5                     	;# 
  1274  0FE6                     	;# 
  1275  0FE7                     	;# 
  1276  0FE8                     	;# 
  1277  0FE9                     	;# 
  1278  0FEA                     	;# 
  1279  0FEB                     	;# 
  1280  0FED                     	;# 
  1281  0FEE                     	;# 
  1282  0FEF                     	;# 
  1283  0000                     	;# 
  1284  0001                     	;# 
  1285  0002                     	;# 
  1286  0003                     	;# 
  1287  0004                     	;# 
  1288  0005                     	;# 
  1289  0006                     	;# 
  1290  0007                     	;# 
  1291  0008                     	;# 
  1292  0009                     	;# 
  1293  000A                     	;# 
  1294  000B                     	;# 
  1295  000C                     	;# 
  1296  000D                     	;# 
  1297  000E                     	;# 
  1298  0011                     	;# 
  1299  0012                     	;# 
  1300  0013                     	;# 
  1301  0015                     	;# 
  1302  0016                     	;# 
  1303  0016                     	;# 
  1304  0017                     	;# 
  1305  0018                     	;# 
  1306  0019                     	;# 
  1307  001A                     	;# 
  1308  001B                     	;# 
  1309  001C                     	;# 
  1310  008C                     	;# 
  1311  008D                     	;# 
  1312  008E                     	;# 
  1313  0091                     	;# 
  1314  0092                     	;# 
  1315  0093                     	;# 
  1316  0095                     	;# 
  1317  0096                     	;# 
  1318  0097                     	;# 
  1319  0098                     	;# 
  1320  0099                     	;# 
  1321  009A                     	;# 
  1322  009B                     	;# 
  1323  009B                     	;# 
  1324  009C                     	;# 
  1325  009D                     	;# 
  1326  009E                     	;# 
  1327  009F                     	;# 
  1328  010C                     	;# 
  1329  010D                     	;# 
  1330  010E                     	;# 
  1331  0111                     	;# 
  1332  0112                     	;# 
  1333  0113                     	;# 
  1334  0114                     	;# 
  1335  0115                     	;# 
  1336  0116                     	;# 
  1337  0117                     	;# 
  1338  0118                     	;# 
  1339  0119                     	;# 
  1340  011C                     	;# 
  1341  018C                     	;# 
  1342  018D                     	;# 
  1343  018E                     	;# 
  1344  0191                     	;# 
  1345  0191                     	;# 
  1346  0192                     	;# 
  1347  0193                     	;# 
  1348  0193                     	;# 
  1349  0194                     	;# 
  1350  0195                     	;# 
  1351  0196                     	;# 
  1352  0197                     	;# 
  1353  0199                     	;# 
  1354  0199                     	;# 
  1355  0199                     	;# 
  1356  019A                     	;# 
  1357  019A                     	;# 
  1358  019A                     	;# 
  1359  019B                     	;# 
  1360  019B                     	;# 
  1361  019B                     	;# 
  1362  019B                     	;# 
  1363  019B                     	;# 
  1364  019C                     	;# 
  1365  019C                     	;# 
  1366  019C                     	;# 
  1367  019D                     	;# 
  1368  019D                     	;# 
  1369  019D                     	;# 
  1370  019E                     	;# 
  1371  019E                     	;# 
  1372  019E                     	;# 
  1373  019F                     	;# 
  1374  019F                     	;# 
  1375  019F                     	;# 
  1376  019F                     	;# 
  1377  019F                     	;# 
  1378  020C                     	;# 
  1379  020D                     	;# 
  1380  020E                     	;# 
  1381  0211                     	;# 
  1382  0211                     	;# 
  1383  0212                     	;# 
  1384  0212                     	;# 
  1385  0213                     	;# 
  1386  0213                     	;# 
  1387  0214                     	;# 
  1388  0214                     	;# 
  1389  0215                     	;# 
  1390  0215                     	;# 
  1391  0215                     	;# 
  1392  0215                     	;# 
  1393  0216                     	;# 
  1394  0216                     	;# 
  1395  0217                     	;# 
  1396  0217                     	;# 
  1397  028C                     	;# 
  1398  028D                     	;# 
  1399  028E                     	;# 
  1400  0291                     	;# 
  1401  0291                     	;# 
  1402  0292                     	;# 
  1403  0293                     	;# 
  1404  0293                     	;# 
  1405  0298                     	;# 
  1406  0298                     	;# 
  1407  0299                     	;# 
  1408  029A                     	;# 
  1409  029A                     	;# 
  1410  029E                     	;# 
  1411  030C                     	;# 
  1412  030D                     	;# 
  1413  030E                     	;# 
  1414  038C                     	;# 
  1415  038D                     	;# 
  1416  038E                     	;# 
  1417  0391                     	;# 
  1418  0392                     	;# 
  1419  0393                     	;# 
  1420  0394                     	;# 
  1421  0395                     	;# 
  1422  0396                     	;# 
  1423  0397                     	;# 
  1424  0398                     	;# 
  1425  0399                     	;# 
  1426  0415                     	;# 
  1427  0416                     	;# 
  1428  0417                     	;# 
  1429  041C                     	;# 
  1430  041D                     	;# 
  1431  041E                     	;# 
  1432  0511                     	;# 
  1433  0515                     	;# 
  1434  0617                     	;# 
  1435  0618                     	;# 
  1436  0619                     	;# 
  1437  0619                     	;# 
  1438  061A                     	;# 
  1439  061B                     	;# 
  1440  061C                     	;# 
  1441  061C                     	;# 
  1442  0691                     	;# 
  1443  0692                     	;# 
  1444  0693                     	;# 
  1445  0694                     	;# 
  1446  0695                     	;# 
  1447  0696                     	;# 
  1448  0697                     	;# 
  1449  0698                     	;# 
  1450  0699                     	;# 
  1451  069A                     	;# 
  1452  069B                     	;# 
  1453  069C                     	;# 
  1454  069D                     	;# 
  1455  069E                     	;# 
  1456  069F                     	;# 
  1457  0E0F                     	;# 
  1458  0E10                     	;# 
  1459  0E11                     	;# 
  1460  0E12                     	;# 
  1461  0E13                     	;# 
  1462  0E14                     	;# 
  1463  0E15                     	;# 
  1464  0E17                     	;# 
  1465  0E20                     	;# 
  1466  0E21                     	;# 
  1467  0E22                     	;# 
  1468  0E24                     	;# 
  1469  0E25                     	;# 
  1470  0E28                     	;# 
  1471  0E29                     	;# 
  1472  0E2A                     	;# 
  1473  0E2B                     	;# 
  1474  0E90                     	;# 
  1475  0E91                     	;# 
  1476  0E92                     	;# 
  1477  0E94                     	;# 
  1478  0E95                     	;# 
  1479  0E9C                     	;# 
  1480  0E9D                     	;# 
  1481  0E9E                     	;# 
  1482  0E9F                     	;# 
  1483  0EA0                     	;# 
  1484  0EA1                     	;# 
  1485  0EA2                     	;# 
  1486  0EA3                     	;# 
  1487  0EA4                     	;# 
  1488  0EA5                     	;# 
  1489  0EA6                     	;# 
  1490  0EA7                     	;# 
  1491  0F0F                     	;# 
  1492  0F10                     	;# 
  1493  0F11                     	;# 
  1494  0F12                     	;# 
  1495  0F13                     	;# 
  1496  0F14                     	;# 
  1497  0F15                     	;# 
  1498  0F16                     	;# 
  1499  0F17                     	;# 
  1500  0F18                     	;# 
  1501  0F19                     	;# 
  1502  0F1A                     	;# 
  1503  0F1B                     	;# 
  1504  0F1C                     	;# 
  1505  0F1D                     	;# 
  1506  0F1E                     	;# 
  1507  0F1F                     	;# 
  1508  0F20                     	;# 
  1509  0F21                     	;# 
  1510  0F22                     	;# 
  1511  0F23                     	;# 
  1512  0F24                     	;# 
  1513  0F25                     	;# 
  1514  0F26                     	;# 
  1515  0F27                     	;# 
  1516  0F28                     	;# 
  1517  0F29                     	;# 
  1518  0F2A                     	;# 
  1519  0F2B                     	;# 
  1520  0F2C                     	;# 
  1521  0F2D                     	;# 
  1522  0F9E                     	;# 
  1523  0FE4                     	;# 
  1524  0FE5                     	;# 
  1525  0FE6                     	;# 
  1526  0FE7                     	;# 
  1527  0FE8                     	;# 
  1528  0FE9                     	;# 
  1529  0FEA                     	;# 
  1530  0FEB                     	;# 
  1531  0FED                     	;# 
  1532  0FEE                     	;# 
  1533  0FEF                     	;# 
  1534  0000                     	;# 
  1535  0001                     	;# 
  1536  0002                     	;# 
  1537  0003                     	;# 
  1538  0004                     	;# 
  1539  0005                     	;# 
  1540  0006                     	;# 
  1541  0007                     	;# 
  1542  0008                     	;# 
  1543  0009                     	;# 
  1544  000A                     	;# 
  1545  000B                     	;# 
  1546  000C                     	;# 
  1547  000D                     	;# 
  1548  000E                     	;# 
  1549  0011                     	;# 
  1550  0012                     	;# 
  1551  0013                     	;# 
  1552  0015                     	;# 
  1553  0016                     	;# 
  1554  0016                     	;# 
  1555  0017                     	;# 
  1556  0018                     	;# 
  1557  0019                     	;# 
  1558  001A                     	;# 
  1559  001B                     	;# 
  1560  001C                     	;# 
  1561  008C                     	;# 
  1562  008D                     	;# 
  1563  008E                     	;# 
  1564  0091                     	;# 
  1565  0092                     	;# 
  1566  0093                     	;# 
  1567  0095                     	;# 
  1568  0096                     	;# 
  1569  0097                     	;# 
  1570  0098                     	;# 
  1571  0099                     	;# 
  1572  009A                     	;# 
  1573  009B                     	;# 
  1574  009B                     	;# 
  1575  009C                     	;# 
  1576  009D                     	;# 
  1577  009E                     	;# 
  1578  009F                     	;# 
  1579  010C                     	;# 
  1580  010D                     	;# 
  1581  010E                     	;# 
  1582  0111                     	;# 
  1583  0112                     	;# 
  1584  0113                     	;# 
  1585  0114                     	;# 
  1586  0115                     	;# 
  1587  0116                     	;# 
  1588  0117                     	;# 
  1589  0118                     	;# 
  1590  0119                     	;# 
  1591  011C                     	;# 
  1592  018C                     	;# 
  1593  018D                     	;# 
  1594  018E                     	;# 
  1595  0191                     	;# 
  1596  0191                     	;# 
  1597  0192                     	;# 
  1598  0193                     	;# 
  1599  0193                     	;# 
  1600  0194                     	;# 
  1601  0195                     	;# 
  1602  0196                     	;# 
  1603  0197                     	;# 
  1604  0199                     	;# 
  1605  0199                     	;# 
  1606  0199                     	;# 
  1607  019A                     	;# 
  1608  019A                     	;# 
  1609  019A                     	;# 
  1610  019B                     	;# 
  1611  019B                     	;# 
  1612  019B                     	;# 
  1613  019B                     	;# 
  1614  019B                     	;# 
  1615  019C                     	;# 
  1616  019C                     	;# 
  1617  019C                     	;# 
  1618  019D                     	;# 
  1619  019D                     	;# 
  1620  019D                     	;# 
  1621  019E                     	;# 
  1622  019E                     	;# 
  1623  019E                     	;# 
  1624  019F                     	;# 
  1625  019F                     	;# 
  1626  019F                     	;# 
  1627  019F                     	;# 
  1628  019F                     	;# 
  1629  020C                     	;# 
  1630  020D                     	;# 
  1631  020E                     	;# 
  1632  0211                     	;# 
  1633  0211                     	;# 
  1634  0212                     	;# 
  1635  0212                     	;# 
  1636  0213                     	;# 
  1637  0213                     	;# 
  1638  0214                     	;# 
  1639  0214                     	;# 
  1640  0215                     	;# 
  1641  0215                     	;# 
  1642  0215                     	;# 
  1643  0215                     	;# 
  1644  0216                     	;# 
  1645  0216                     	;# 
  1646  0217                     	;# 
  1647  0217                     	;# 
  1648  028C                     	;# 
  1649  028D                     	;# 
  1650  028E                     	;# 
  1651  0291                     	;# 
  1652  0291                     	;# 
  1653  0292                     	;# 
  1654  0293                     	;# 
  1655  0293                     	;# 
  1656  0298                     	;# 
  1657  0298                     	;# 
  1658  0299                     	;# 
  1659  029A                     	;# 
  1660  029A                     	;# 
  1661  029E                     	;# 
  1662  030C                     	;# 
  1663  030D                     	;# 
  1664  030E                     	;# 
  1665  038C                     	;# 
  1666  038D                     	;# 
  1667  038E                     	;# 
  1668  0391                     	;# 
  1669  0392                     	;# 
  1670  0393                     	;# 
  1671  0394                     	;# 
  1672  0395                     	;# 
  1673  0396                     	;# 
  1674  0397                     	;# 
  1675  0398                     	;# 
  1676  0399                     	;# 
  1677  0415                     	;# 
  1678  0416                     	;# 
  1679  0417                     	;# 
  1680  041C                     	;# 
  1681  041D                     	;# 
  1682  041E                     	;# 
  1683  0511                     	;# 
  1684  0515                     	;# 
  1685  0617                     	;# 
  1686  0618                     	;# 
  1687  0619                     	;# 
  1688  0619                     	;# 
  1689  061A                     	;# 
  1690  061B                     	;# 
  1691  061C                     	;# 
  1692  061C                     	;# 
  1693  0691                     	;# 
  1694  0692                     	;# 
  1695  0693                     	;# 
  1696  0694                     	;# 
  1697  0695                     	;# 
  1698  0696                     	;# 
  1699  0697                     	;# 
  1700  0698                     	;# 
  1701  0699                     	;# 
  1702  069A                     	;# 
  1703  069B                     	;# 
  1704  069C                     	;# 
  1705  069D                     	;# 
  1706  069E                     	;# 
  1707  069F                     	;# 
  1708  0E0F                     	;# 
  1709  0E10                     	;# 
  1710  0E11                     	;# 
  1711  0E12                     	;# 
  1712  0E13                     	;# 
  1713  0E14                     	;# 
  1714  0E15                     	;# 
  1715  0E17                     	;# 
  1716  0E20                     	;# 
  1717  0E21                     	;# 
  1718  0E22                     	;# 
  1719  0E24                     	;# 
  1720  0E25                     	;# 
  1721  0E28                     	;# 
  1722  0E29                     	;# 
  1723  0E2A                     	;# 
  1724  0E2B                     	;# 
  1725  0E90                     	;# 
  1726  0E91                     	;# 
  1727  0E92                     	;# 
  1728  0E94                     	;# 
  1729  0E95                     	;# 
  1730  0E9C                     	;# 
  1731  0E9D                     	;# 
  1732  0E9E                     	;# 
  1733  0E9F                     	;# 
  1734  0EA0                     	;# 
  1735  0EA1                     	;# 
  1736  0EA2                     	;# 
  1737  0EA3                     	;# 
  1738  0EA4                     	;# 
  1739  0EA5                     	;# 
  1740  0EA6                     	;# 
  1741  0EA7                     	;# 
  1742  0F0F                     	;# 
  1743  0F10                     	;# 
  1744  0F11                     	;# 
  1745  0F12                     	;# 
  1746  0F13                     	;# 
  1747  0F14                     	;# 
  1748  0F15                     	;# 
  1749  0F16                     	;# 
  1750  0F17                     	;# 
  1751  0F18                     	;# 
  1752  0F19                     	;# 
  1753  0F1A                     	;# 
  1754  0F1B                     	;# 
  1755  0F1C                     	;# 
  1756  0F1D                     	;# 
  1757  0F1E                     	;# 
  1758  0F1F                     	;# 
  1759  0F20                     	;# 
  1760  0F21                     	;# 
  1761  0F22                     	;# 
  1762  0F23                     	;# 
  1763  0F24                     	;# 
  1764  0F25                     	;# 
  1765  0F26                     	;# 
  1766  0F27                     	;# 
  1767  0F28                     	;# 
  1768  0F29                     	;# 
  1769  0F2A                     	;# 
  1770  0F2B                     	;# 
  1771  0F2C                     	;# 
  1772  0F2D                     	;# 
  1773  0F9E                     	;# 
  1774  0FE4                     	;# 
  1775  0FE5                     	;# 
  1776  0FE6                     	;# 
  1777  0FE7                     	;# 
  1778  0FE8                     	;# 
  1779  0FE9                     	;# 
  1780  0FEA                     	;# 
  1781  0FEB                     	;# 
  1782  0FED                     	;# 
  1783  0FEE                     	;# 
  1784  0FEF                     	;# 
  1785  0000                     	;# 
  1786  0001                     	;# 
  1787  0002                     	;# 
  1788  0003                     	;# 
  1789  0004                     	;# 
  1790  0005                     	;# 
  1791  0006                     	;# 
  1792  0007                     	;# 
  1793  0008                     	;# 
  1794  0009                     	;# 
  1795  000A                     	;# 
  1796  000B                     	;# 
  1797  000C                     	;# 
  1798  000D                     	;# 
  1799  000E                     	;# 
  1800  0011                     	;# 
  1801  0012                     	;# 
  1802  0013                     	;# 
  1803  0015                     	;# 
  1804  0016                     	;# 
  1805  0016                     	;# 
  1806  0017                     	;# 
  1807  0018                     	;# 
  1808  0019                     	;# 
  1809  001A                     	;# 
  1810  001B                     	;# 
  1811  001C                     	;# 
  1812  008C                     	;# 
  1813  008D                     	;# 
  1814  008E                     	;# 
  1815  0091                     	;# 
  1816  0092                     	;# 
  1817  0093                     	;# 
  1818  0095                     	;# 
  1819  0096                     	;# 
  1820  0097                     	;# 
  1821  0098                     	;# 
  1822  0099                     	;# 
  1823  009A                     	;# 
  1824  009B                     	;# 
  1825  009B                     	;# 
  1826  009C                     	;# 
  1827  009D                     	;# 
  1828  009E                     	;# 
  1829  009F                     	;# 
  1830  010C                     	;# 
  1831  010D                     	;# 
  1832  010E                     	;# 
  1833  0111                     	;# 
  1834  0112                     	;# 
  1835  0113                     	;# 
  1836  0114                     	;# 
  1837  0115                     	;# 
  1838  0116                     	;# 
  1839  0117                     	;# 
  1840  0118                     	;# 
  1841  0119                     	;# 
  1842  011C                     	;# 
  1843  018C                     	;# 
  1844  018D                     	;# 
  1845  018E                     	;# 
  1846  0191                     	;# 
  1847  0191                     	;# 
  1848  0192                     	;# 
  1849  0193                     	;# 
  1850  0193                     	;# 
  1851  0194                     	;# 
  1852  0195                     	;# 
  1853  0196                     	;# 
  1854  0197                     	;# 
  1855  0199                     	;# 
  1856  0199                     	;# 
  1857  0199                     	;# 
  1858  019A                     	;# 
  1859  019A                     	;# 
  1860  019A                     	;# 
  1861  019B                     	;# 
  1862  019B                     	;# 
  1863  019B                     	;# 
  1864  019B                     	;# 
  1865  019B                     	;# 
  1866  019C                     	;# 
  1867  019C                     	;# 
  1868  019C                     	;# 
  1869  019D                     	;# 
  1870  019D                     	;# 
  1871  019D                     	;# 
  1872  019E                     	;# 
  1873  019E                     	;# 
  1874  019E                     	;# 
  1875  019F                     	;# 
  1876  019F                     	;# 
  1877  019F                     	;# 
  1878  019F                     	;# 
  1879  019F                     	;# 
  1880  020C                     	;# 
  1881  020D                     	;# 
  1882  020E                     	;# 
  1883  0211                     	;# 
  1884  0211                     	;# 
  1885  0212                     	;# 
  1886  0212                     	;# 
  1887  0213                     	;# 
  1888  0213                     	;# 
  1889  0214                     	;# 
  1890  0214                     	;# 
  1891  0215                     	;# 
  1892  0215                     	;# 
  1893  0215                     	;# 
  1894  0215                     	;# 
  1895  0216                     	;# 
  1896  0216                     	;# 
  1897  0217                     	;# 
  1898  0217                     	;# 
  1899  028C                     	;# 
  1900  028D                     	;# 
  1901  028E                     	;# 
  1902  0291                     	;# 
  1903  0291                     	;# 
  1904  0292                     	;# 
  1905  0293                     	;# 
  1906  0293                     	;# 
  1907  0298                     	;# 
  1908  0298                     	;# 
  1909  0299                     	;# 
  1910  029A                     	;# 
  1911  029A                     	;# 
  1912  029E                     	;# 
  1913  030C                     	;# 
  1914  030D                     	;# 
  1915  030E                     	;# 
  1916  038C                     	;# 
  1917  038D                     	;# 
  1918  038E                     	;# 
  1919  0391                     	;# 
  1920  0392                     	;# 
  1921  0393                     	;# 
  1922  0394                     	;# 
  1923  0395                     	;# 
  1924  0396                     	;# 
  1925  0397                     	;# 
  1926  0398                     	;# 
  1927  0399                     	;# 
  1928  0415                     	;# 
  1929  0416                     	;# 
  1930  0417                     	;# 
  1931  041C                     	;# 
  1932  041D                     	;# 
  1933  041E                     	;# 
  1934  0511                     	;# 
  1935  0515                     	;# 
  1936  0617                     	;# 
  1937  0618                     	;# 
  1938  0619                     	;# 
  1939  0619                     	;# 
  1940  061A                     	;# 
  1941  061B                     	;# 
  1942  061C                     	;# 
  1943  061C                     	;# 
  1944  0691                     	;# 
  1945  0692                     	;# 
  1946  0693                     	;# 
  1947  0694                     	;# 
  1948  0695                     	;# 
  1949  0696                     	;# 
  1950  0697                     	;# 
  1951  0698                     	;# 
  1952  0699                     	;# 
  1953  069A                     	;# 
  1954  069B                     	;# 
  1955  069C                     	;# 
  1956  069D                     	;# 
  1957  069E                     	;# 
  1958  069F                     	;# 
  1959  0E0F                     	;# 
  1960  0E10                     	;# 
  1961  0E11                     	;# 
  1962  0E12                     	;# 
  1963  0E13                     	;# 
  1964  0E14                     	;# 
  1965  0E15                     	;# 
  1966  0E17                     	;# 
  1967  0E20                     	;# 
  1968  0E21                     	;# 
  1969  0E22                     	;# 
  1970  0E24                     	;# 
  1971  0E25                     	;# 
  1972  0E28                     	;# 
  1973  0E29                     	;# 
  1974  0E2A                     	;# 
  1975  0E2B                     	;# 
  1976  0E90                     	;# 
  1977  0E91                     	;# 
  1978  0E92                     	;# 
  1979  0E94                     	;# 
  1980  0E95                     	;# 
  1981  0E9C                     	;# 
  1982  0E9D                     	;# 
  1983  0E9E                     	;# 
  1984  0E9F                     	;# 
  1985  0EA0                     	;# 
  1986  0EA1                     	;# 
  1987  0EA2                     	;# 
  1988  0EA3                     	;# 
  1989  0EA4                     	;# 
  1990  0EA5                     	;# 
  1991  0EA6                     	;# 
  1992  0EA7                     	;# 
  1993  0F0F                     	;# 
  1994  0F10                     	;# 
  1995  0F11                     	;# 
  1996  0F12                     	;# 
  1997  0F13                     	;# 
  1998  0F14                     	;# 
  1999  0F15                     	;# 
  2000  0F16                     	;# 
  2001  0F17                     	;# 
  2002  0F18                     	;# 
  2003  0F19                     	;# 
  2004  0F1A                     	;# 
  2005  0F1B                     	;# 
  2006  0F1C                     	;# 
  2007  0F1D                     	;# 
  2008  0F1E                     	;# 
  2009  0F1F                     	;# 
  2010  0F20                     	;# 
  2011  0F21                     	;# 
  2012  0F22                     	;# 
  2013  0F23                     	;# 
  2014  0F24                     	;# 
  2015  0F25                     	;# 
  2016  0F26                     	;# 
  2017  0F27                     	;# 
  2018  0F28                     	;# 
  2019  0F29                     	;# 
  2020  0F2A                     	;# 
  2021  0F2B                     	;# 
  2022  0F2C                     	;# 
  2023  0F2D                     	;# 
  2024  0F9E                     	;# 
  2025  0FE4                     	;# 
  2026  0FE5                     	;# 
  2027  0FE6                     	;# 
  2028  0FE7                     	;# 
  2029  0FE8                     	;# 
  2030  0FE9                     	;# 
  2031  0FEA                     	;# 
  2032  0FEB                     	;# 
  2033  0FED                     	;# 
  2034  0FEE                     	;# 
  2035  0FEF                     	;# 
  2036  0000                     	;# 
  2037  0001                     	;# 
  2038  0002                     	;# 
  2039  0003                     	;# 
  2040  0004                     	;# 
  2041  0005                     	;# 
  2042  0006                     	;# 
  2043  0007                     	;# 
  2044  0008                     	;# 
  2045  0009                     	;# 
  2046  000A                     	;# 
  2047  000B                     	;# 
  2048  000C                     	;# 
  2049  000D                     	;# 
  2050  000E                     	;# 
  2051  0011                     	;# 
  2052  0012                     	;# 
  2053  0013                     	;# 
  2054  0015                     	;# 
  2055  0016                     	;# 
  2056  0016                     	;# 
  2057  0017                     	;# 
  2058  0018                     	;# 
  2059  0019                     	;# 
  2060  001A                     	;# 
  2061  001B                     	;# 
  2062  001C                     	;# 
  2063  008C                     	;# 
  2064  008D                     	;# 
  2065  008E                     	;# 
  2066  0091                     	;# 
  2067  0092                     	;# 
  2068  0093                     	;# 
  2069  0095                     	;# 
  2070  0096                     	;# 
  2071  0097                     	;# 
  2072  0098                     	;# 
  2073  0099                     	;# 
  2074  009A                     	;# 
  2075  009B                     	;# 
  2076  009B                     	;# 
  2077  009C                     	;# 
  2078  009D                     	;# 
  2079  009E                     	;# 
  2080  009F                     	;# 
  2081  010C                     	;# 
  2082  010D                     	;# 
  2083  010E                     	;# 
  2084  0111                     	;# 
  2085  0112                     	;# 
  2086  0113                     	;# 
  2087  0114                     	;# 
  2088  0115                     	;# 
  2089  0116                     	;# 
  2090  0117                     	;# 
  2091  0118                     	;# 
  2092  0119                     	;# 
  2093  011C                     	;# 
  2094  018C                     	;# 
  2095  018D                     	;# 
  2096  018E                     	;# 
  2097  0191                     	;# 
  2098  0191                     	;# 
  2099  0192                     	;# 
  2100  0193                     	;# 
  2101  0193                     	;# 
  2102  0194                     	;# 
  2103  0195                     	;# 
  2104  0196                     	;# 
  2105  0197                     	;# 
  2106  0199                     	;# 
  2107  0199                     	;# 
  2108  0199                     	;# 
  2109  019A                     	;# 
  2110  019A                     	;# 
  2111  019A                     	;# 
  2112  019B                     	;# 
  2113  019B                     	;# 
  2114  019B                     	;# 
  2115  019B                     	;# 
  2116  019B                     	;# 
  2117  019C                     	;# 
  2118  019C                     	;# 
  2119  019C                     	;# 
  2120  019D                     	;# 
  2121  019D                     	;# 
  2122  019D                     	;# 
  2123  019E                     	;# 
  2124  019E                     	;# 
  2125  019E                     	;# 
  2126  019F                     	;# 
  2127  019F                     	;# 
  2128  019F                     	;# 
  2129  019F                     	;# 
  2130  019F                     	;# 
  2131  020C                     	;# 
  2132  020D                     	;# 
  2133  020E                     	;# 
  2134  0211                     	;# 
  2135  0211                     	;# 
  2136  0212                     	;# 
  2137  0212                     	;# 
  2138  0213                     	;# 
  2139  0213                     	;# 
  2140  0214                     	;# 
  2141  0214                     	;# 
  2142  0215                     	;# 
  2143  0215                     	;# 
  2144  0215                     	;# 
  2145  0215                     	;# 
  2146  0216                     	;# 
  2147  0216                     	;# 
  2148  0217                     	;# 
  2149  0217                     	;# 
  2150  028C                     	;# 
  2151  028D                     	;# 
  2152  028E                     	;# 
  2153  0291                     	;# 
  2154  0291                     	;# 
  2155  0292                     	;# 
  2156  0293                     	;# 
  2157  0293                     	;# 
  2158  0298                     	;# 
  2159  0298                     	;# 
  2160  0299                     	;# 
  2161  029A                     	;# 
  2162  029A                     	;# 
  2163  029E                     	;# 
  2164  030C                     	;# 
  2165  030D                     	;# 
  2166  030E                     	;# 
  2167  038C                     	;# 
  2168  038D                     	;# 
  2169  038E                     	;# 
  2170  0391                     	;# 
  2171  0392                     	;# 
  2172  0393                     	;# 
  2173  0394                     	;# 
  2174  0395                     	;# 
  2175  0396                     	;# 
  2176  0397                     	;# 
  2177  0398                     	;# 
  2178  0399                     	;# 
  2179  0415                     	;# 
  2180  0416                     	;# 
  2181  0417                     	;# 
  2182  041C                     	;# 
  2183  041D                     	;# 
  2184  041E                     	;# 
  2185  0511                     	;# 
  2186  0515                     	;# 
  2187  0617                     	;# 
  2188  0618                     	;# 
  2189  0619                     	;# 
  2190  0619                     	;# 
  2191  061A                     	;# 
  2192  061B                     	;# 
  2193  061C                     	;# 
  2194  061C                     	;# 
  2195  0691                     	;# 
  2196  0692                     	;# 
  2197  0693                     	;# 
  2198  0694                     	;# 
  2199  0695                     	;# 
  2200  0696                     	;# 
  2201  0697                     	;# 
  2202  0698                     	;# 
  2203  0699                     	;# 
  2204  069A                     	;# 
  2205  069B                     	;# 
  2206  069C                     	;# 
  2207  069D                     	;# 
  2208  069E                     	;# 
  2209  069F                     	;# 
  2210  0E0F                     	;# 
  2211  0E10                     	;# 
  2212  0E11                     	;# 
  2213  0E12                     	;# 
  2214  0E13                     	;# 
  2215  0E14                     	;# 
  2216  0E15                     	;# 
  2217  0E17                     	;# 
  2218  0E20                     	;# 
  2219  0E21                     	;# 
  2220  0E22                     	;# 
  2221  0E24                     	;# 
  2222  0E25                     	;# 
  2223  0E28                     	;# 
  2224  0E29                     	;# 
  2225  0E2A                     	;# 
  2226  0E2B                     	;# 
  2227  0E90                     	;# 
  2228  0E91                     	;# 
  2229  0E92                     	;# 
  2230  0E94                     	;# 
  2231  0E95                     	;# 
  2232  0E9C                     	;# 
  2233  0E9D                     	;# 
  2234  0E9E                     	;# 
  2235  0E9F                     	;# 
  2236  0EA0                     	;# 
  2237  0EA1                     	;# 
  2238  0EA2                     	;# 
  2239  0EA3                     	;# 
  2240  0EA4                     	;# 
  2241  0EA5                     	;# 
  2242  0EA6                     	;# 
  2243  0EA7                     	;# 
  2244  0F0F                     	;# 
  2245  0F10                     	;# 
  2246  0F11                     	;# 
  2247  0F12                     	;# 
  2248  0F13                     	;# 
  2249  0F14                     	;# 
  2250  0F15                     	;# 
  2251  0F16                     	;# 
  2252  0F17                     	;# 
  2253  0F18                     	;# 
  2254  0F19                     	;# 
  2255  0F1A                     	;# 
  2256  0F1B                     	;# 
  2257  0F1C                     	;# 
  2258  0F1D                     	;# 
  2259  0F1E                     	;# 
  2260  0F1F                     	;# 
  2261  0F20                     	;# 
  2262  0F21                     	;# 
  2263  0F22                     	;# 
  2264  0F23                     	;# 
  2265  0F24                     	;# 
  2266  0F25                     	;# 
  2267  0F26                     	;# 
  2268  0F27                     	;# 
  2269  0F28                     	;# 
  2270  0F29                     	;# 
  2271  0F2A                     	;# 
  2272  0F2B                     	;# 
  2273  0F2C                     	;# 
  2274  0F2D                     	;# 
  2275  0F9E                     	;# 
  2276  0FE4                     	;# 
  2277  0FE5                     	;# 
  2278  0FE6                     	;# 
  2279  0FE7                     	;# 
  2280  0FE8                     	;# 
  2281  0FE9                     	;# 
  2282  0FEA                     	;# 
  2283  0FEB                     	;# 
  2284  0FED                     	;# 
  2285  0FEE                     	;# 
  2286  0FEF                     	;# 
  2287  0000                     	;# 
  2288  0001                     	;# 
  2289  0002                     	;# 
  2290  0003                     	;# 
  2291  0004                     	;# 
  2292  0005                     	;# 
  2293  0006                     	;# 
  2294  0007                     	;# 
  2295  0008                     	;# 
  2296  0009                     	;# 
  2297  000A                     	;# 
  2298  000B                     	;# 
  2299  000C                     	;# 
  2300  000D                     	;# 
  2301  000E                     	;# 
  2302  0011                     	;# 
  2303  0012                     	;# 
  2304  0013                     	;# 
  2305  0015                     	;# 
  2306  0016                     	;# 
  2307  0016                     	;# 
  2308  0017                     	;# 
  2309  0018                     	;# 
  2310  0019                     	;# 
  2311  001A                     	;# 
  2312  001B                     	;# 
  2313  001C                     	;# 
  2314  008C                     	;# 
  2315  008D                     	;# 
  2316  008E                     	;# 
  2317  0091                     	;# 
  2318  0092                     	;# 
  2319  0093                     	;# 
  2320  0095                     	;# 
  2321  0096                     	;# 
  2322  0097                     	;# 
  2323  0098                     	;# 
  2324  0099                     	;# 
  2325  009A                     	;# 
  2326  009B                     	;# 
  2327  009B                     	;# 
  2328  009C                     	;# 
  2329  009D                     	;# 
  2330  009E                     	;# 
  2331  009F                     	;# 
  2332  010C                     	;# 
  2333  010D                     	;# 
  2334  010E                     	;# 
  2335  0111                     	;# 
  2336  0112                     	;# 
  2337  0113                     	;# 
  2338  0114                     	;# 
  2339  0115                     	;# 
  2340  0116                     	;# 
  2341  0117                     	;# 
  2342  0118                     	;# 
  2343  0119                     	;# 
  2344  011C                     	;# 
  2345  018C                     	;# 
  2346  018D                     	;# 
  2347  018E                     	;# 
  2348  0191                     	;# 
  2349  0191                     	;# 
  2350  0192                     	;# 
  2351  0193                     	;# 
  2352  0193                     	;# 
  2353  0194                     	;# 
  2354  0195                     	;# 
  2355  0196                     	;# 
  2356  0197                     	;# 
  2357  0199                     	;# 
  2358  0199                     	;# 
  2359  0199                     	;# 
  2360  019A                     	;# 
  2361  019A                     	;# 
  2362  019A                     	;# 
  2363  019B                     	;# 
  2364  019B                     	;# 
  2365  019B                     	;# 
  2366  019B                     	;# 
  2367  019B                     	;# 
  2368  019C                     	;# 
  2369  019C                     	;# 
  2370  019C                     	;# 
  2371  019D                     	;# 
  2372  019D                     	;# 
  2373  019D                     	;# 
  2374  019E                     	;# 
  2375  019E                     	;# 
  2376  019E                     	;# 
  2377  019F                     	;# 
  2378  019F                     	;# 
  2379  019F                     	;# 
  2380  019F                     	;# 
  2381  019F                     	;# 
  2382  020C                     	;# 
  2383  020D                     	;# 
  2384  020E                     	;# 
  2385  0211                     	;# 
  2386  0211                     	;# 
  2387  0212                     	;# 
  2388  0212                     	;# 
  2389  0213                     	;# 
  2390  0213                     	;# 
  2391  0214                     	;# 
  2392  0214                     	;# 
  2393  0215                     	;# 
  2394  0215                     	;# 
  2395  0215                     	;# 
  2396  0215                     	;# 
  2397  0216                     	;# 
  2398  0216                     	;# 
  2399  0217                     	;# 
  2400  0217                     	;# 
  2401  028C                     	;# 
  2402  028D                     	;# 
  2403  028E                     	;# 
  2404  0291                     	;# 
  2405  0291                     	;# 
  2406  0292                     	;# 
  2407  0293                     	;# 
  2408  0293                     	;# 
  2409  0298                     	;# 
  2410  0298                     	;# 
  2411  0299                     	;# 
  2412  029A                     	;# 
  2413  029A                     	;# 
  2414  029E                     	;# 
  2415  030C                     	;# 
  2416  030D                     	;# 
  2417  030E                     	;# 
  2418  038C                     	;# 
  2419  038D                     	;# 
  2420  038E                     	;# 
  2421  0391                     	;# 
  2422  0392                     	;# 
  2423  0393                     	;# 
  2424  0394                     	;# 
  2425  0395                     	;# 
  2426  0396                     	;# 
  2427  0397                     	;# 
  2428  0398                     	;# 
  2429  0399                     	;# 
  2430  0415                     	;# 
  2431  0416                     	;# 
  2432  0417                     	;# 
  2433  041C                     	;# 
  2434  041D                     	;# 
  2435  041E                     	;# 
  2436  0511                     	;# 
  2437  0515                     	;# 
  2438  0617                     	;# 
  2439  0618                     	;# 
  2440  0619                     	;# 
  2441  0619                     	;# 
  2442  061A                     	;# 
  2443  061B                     	;# 
  2444  061C                     	;# 
  2445  061C                     	;# 
  2446  0691                     	;# 
  2447  0692                     	;# 
  2448  0693                     	;# 
  2449  0694                     	;# 
  2450  0695                     	;# 
  2451  0696                     	;# 
  2452  0697                     	;# 
  2453  0698                     	;# 
  2454  0699                     	;# 
  2455  069A                     	;# 
  2456  069B                     	;# 
  2457  069C                     	;# 
  2458  069D                     	;# 
  2459  069E                     	;# 
  2460  069F                     	;# 
  2461  0E0F                     	;# 
  2462  0E10                     	;# 
  2463  0E11                     	;# 
  2464  0E12                     	;# 
  2465  0E13                     	;# 
  2466  0E14                     	;# 
  2467  0E15                     	;# 
  2468  0E17                     	;# 
  2469  0E20                     	;# 
  2470  0E21                     	;# 
  2471  0E22                     	;# 
  2472  0E24                     	;# 
  2473  0E25                     	;# 
  2474  0E28                     	;# 
  2475  0E29                     	;# 
  2476  0E2A                     	;# 
  2477  0E2B                     	;# 
  2478  0E90                     	;# 
  2479  0E91                     	;# 
  2480  0E92                     	;# 
  2481  0E94                     	;# 
  2482  0E95                     	;# 
  2483  0E9C                     	;# 
  2484  0E9D                     	;# 
  2485  0E9E                     	;# 
  2486  0E9F                     	;# 
  2487  0EA0                     	;# 
  2488  0EA1                     	;# 
  2489  0EA2                     	;# 
  2490  0EA3                     	;# 
  2491  0EA4                     	;# 
  2492  0EA5                     	;# 
  2493  0EA6                     	;# 
  2494  0EA7                     	;# 
  2495  0F0F                     	;# 
  2496  0F10                     	;# 
  2497  0F11                     	;# 
  2498  0F12                     	;# 
  2499  0F13                     	;# 
  2500  0F14                     	;# 
  2501  0F15                     	;# 
  2502  0F16                     	;# 
  2503  0F17                     	;# 
  2504  0F18                     	;# 
  2505  0F19                     	;# 
  2506  0F1A                     	;# 
  2507  0F1B                     	;# 
  2508  0F1C                     	;# 
  2509  0F1D                     	;# 
  2510  0F1E                     	;# 
  2511  0F1F                     	;# 
  2512  0F20                     	;# 
  2513  0F21                     	;# 
  2514  0F22                     	;# 
  2515  0F23                     	;# 
  2516  0F24                     	;# 
  2517  0F25                     	;# 
  2518  0F26                     	;# 
  2519  0F27                     	;# 
  2520  0F28                     	;# 
  2521  0F29                     	;# 
  2522  0F2A                     	;# 
  2523  0F2B                     	;# 
  2524  0F2C                     	;# 
  2525  0F2D                     	;# 
  2526  0F9E                     	;# 
  2527  0FE4                     	;# 
  2528  0FE5                     	;# 
  2529  0FE6                     	;# 
  2530  0FE7                     	;# 
  2531  0FE8                     	;# 
  2532  0FE9                     	;# 
  2533  0FEA                     	;# 
  2534  0FEB                     	;# 
  2535  0FED                     	;# 
  2536  0FEE                     	;# 
  2537  0FEF                     	;# 
  2538  0000                     	;# 
  2539  0001                     	;# 
  2540  0002                     	;# 
  2541  0003                     	;# 
  2542  0004                     	;# 
  2543  0005                     	;# 
  2544  0006                     	;# 
  2545  0007                     	;# 
  2546  0008                     	;# 
  2547  0009                     	;# 
  2548  000A                     	;# 
  2549  000B                     	;# 
  2550  000C                     	;# 
  2551  000D                     	;# 
  2552  000E                     	;# 
  2553  0011                     	;# 
  2554  0012                     	;# 
  2555  0013                     	;# 
  2556  0015                     	;# 
  2557  0016                     	;# 
  2558  0016                     	;# 
  2559  0017                     	;# 
  2560  0018                     	;# 
  2561  0019                     	;# 
  2562  001A                     	;# 
  2563  001B                     	;# 
  2564  001C                     	;# 
  2565  008C                     	;# 
  2566  008D                     	;# 
  2567  008E                     	;# 
  2568  0091                     	;# 
  2569  0092                     	;# 
  2570  0093                     	;# 
  2571  0095                     	;# 
  2572  0096                     	;# 
  2573  0097                     	;# 
  2574  0098                     	;# 
  2575  0099                     	;# 
  2576  009A                     	;# 
  2577  009B                     	;# 
  2578  009B                     	;# 
  2579  009C                     	;# 
  2580  009D                     	;# 
  2581  009E                     	;# 
  2582  009F                     	;# 
  2583  010C                     	;# 
  2584  010D                     	;# 
  2585  010E                     	;# 
  2586  0111                     	;# 
  2587  0112                     	;# 
  2588  0113                     	;# 
  2589  0114                     	;# 
  2590  0115                     	;# 
  2591  0116                     	;# 
  2592  0117                     	;# 
  2593  0118                     	;# 
  2594  0119                     	;# 
  2595  011C                     	;# 
  2596  018C                     	;# 
  2597  018D                     	;# 
  2598  018E                     	;# 
  2599  0191                     	;# 
  2600  0191                     	;# 
  2601  0192                     	;# 
  2602  0193                     	;# 
  2603  0193                     	;# 
  2604  0194                     	;# 
  2605  0195                     	;# 
  2606  0196                     	;# 
  2607  0197                     	;# 
  2608  0199                     	;# 
  2609  0199                     	;# 
  2610  0199                     	;# 
  2611  019A                     	;# 
  2612  019A                     	;# 
  2613  019A                     	;# 
  2614  019B                     	;# 
  2615  019B                     	;# 
  2616  019B                     	;# 
  2617  019B                     	;# 
  2618  019B                     	;# 
  2619  019C                     	;# 
  2620  019C                     	;# 
  2621  019C                     	;# 
  2622  019D                     	;# 
  2623  019D                     	;# 
  2624  019D                     	;# 
  2625  019E                     	;# 
  2626  019E                     	;# 
  2627  019E                     	;# 
  2628  019F                     	;# 
  2629  019F                     	;# 
  2630  019F                     	;# 
  2631  019F                     	;# 
  2632  019F                     	;# 
  2633  020C                     	;# 
  2634  020D                     	;# 
  2635  020E                     	;# 
  2636  0211                     	;# 
  2637  0211                     	;# 
  2638  0212                     	;# 
  2639  0212                     	;# 
  2640  0213                     	;# 
  2641  0213                     	;# 
  2642  0214                     	;# 
  2643  0214                     	;# 
  2644  0215                     	;# 
  2645  0215                     	;# 
  2646  0215                     	;# 
  2647  0215                     	;# 
  2648  0216                     	;# 
  2649  0216                     	;# 
  2650  0217                     	;# 
  2651  0217                     	;# 
  2652  028C                     	;# 
  2653  028D                     	;# 
  2654  028E                     	;# 
  2655  0291                     	;# 
  2656  0291                     	;# 
  2657  0292                     	;# 
  2658  0293                     	;# 
  2659  0293                     	;# 
  2660  0298                     	;# 
  2661  0298                     	;# 
  2662  0299                     	;# 
  2663  029A                     	;# 
  2664  029A                     	;# 
  2665  029E                     	;# 
  2666  030C                     	;# 
  2667  030D                     	;# 
  2668  030E                     	;# 
  2669  038C                     	;# 
  2670  038D                     	;# 
  2671  038E                     	;# 
  2672  0391                     	;# 
  2673  0392                     	;# 
  2674  0393                     	;# 
  2675  0394                     	;# 
  2676  0395                     	;# 
  2677  0396                     	;# 
  2678  0397                     	;# 
  2679  0398                     	;# 
  2680  0399                     	;# 
  2681  0415                     	;# 
  2682  0416                     	;# 
  2683  0417                     	;# 
  2684  041C                     	;# 
  2685  041D                     	;# 
  2686  041E                     	;# 
  2687  0511                     	;# 
  2688  0515                     	;# 
  2689  0617                     	;# 
  2690  0618                     	;# 
  2691  0619                     	;# 
  2692  0619                     	;# 
  2693  061A                     	;# 
  2694  061B                     	;# 
  2695  061C                     	;# 
  2696  061C                     	;# 
  2697  0691                     	;# 
  2698  0692                     	;# 
  2699  0693                     	;# 
  2700  0694                     	;# 
  2701  0695                     	;# 
  2702  0696                     	;# 
  2703  0697                     	;# 
  2704  0698                     	;# 
  2705  0699                     	;# 
  2706  069A                     	;# 
  2707  069B                     	;# 
  2708  069C                     	;# 
  2709  069D                     	;# 
  2710  069E                     	;# 
  2711  069F                     	;# 
  2712  0E0F                     	;# 
  2713  0E10                     	;# 
  2714  0E11                     	;# 
  2715  0E12                     	;# 
  2716  0E13                     	;# 
  2717  0E14                     	;# 
  2718  0E15                     	;# 
  2719  0E17                     	;# 
  2720  0E20                     	;# 
  2721  0E21                     	;# 
  2722  0E22                     	;# 
  2723  0E24                     	;# 
  2724  0E25                     	;# 
  2725  0E28                     	;# 
  2726  0E29                     	;# 
  2727  0E2A                     	;# 
  2728  0E2B                     	;# 
  2729  0E90                     	;# 
  2730  0E91                     	;# 
  2731  0E92                     	;# 
  2732  0E94                     	;# 
  2733  0E95                     	;# 
  2734  0E9C                     	;# 
  2735  0E9D                     	;# 
  2736  0E9E                     	;# 
  2737  0E9F                     	;# 
  2738  0EA0                     	;# 
  2739  0EA1                     	;# 
  2740  0EA2                     	;# 
  2741  0EA3                     	;# 
  2742  0EA4                     	;# 
  2743  0EA5                     	;# 
  2744  0EA6                     	;# 
  2745  0EA7                     	;# 
  2746  0F0F                     	;# 
  2747  0F10                     	;# 
  2748  0F11                     	;# 
  2749  0F12                     	;# 
  2750  0F13                     	;# 
  2751  0F14                     	;# 
  2752  0F15                     	;# 
  2753  0F16                     	;# 
  2754  0F17                     	;# 
  2755  0F18                     	;# 
  2756  0F19                     	;# 
  2757  0F1A                     	;# 
  2758  0F1B                     	;# 
  2759  0F1C                     	;# 
  2760  0F1D                     	;# 
  2761  0F1E                     	;# 
  2762  0F1F                     	;# 
  2763  0F20                     	;# 
  2764  0F21                     	;# 
  2765  0F22                     	;# 
  2766  0F23                     	;# 
  2767  0F24                     	;# 
  2768  0F25                     	;# 
  2769  0F26                     	;# 
  2770  0F27                     	;# 
  2771  0F28                     	;# 
  2772  0F29                     	;# 
  2773  0F2A                     	;# 
  2774  0F2B                     	;# 
  2775  0F2C                     	;# 
  2776  0F2D                     	;# 
  2777  0F9E                     	;# 
  2778  0FE4                     	;# 
  2779  0FE5                     	;# 
  2780  0FE6                     	;# 
  2781  0FE7                     	;# 
  2782  0FE8                     	;# 
  2783  0FE9                     	;# 
  2784  0FEA                     	;# 
  2785  0FEB                     	;# 
  2786  0FED                     	;# 
  2787  0FEE                     	;# 
  2788  0FEF                     	;# 
  2789  0000                     	;# 
  2790  0001                     	;# 
  2791  0002                     	;# 
  2792  0003                     	;# 
  2793  0004                     	;# 
  2794  0005                     	;# 
  2795  0006                     	;# 
  2796  0007                     	;# 
  2797  0008                     	;# 
  2798  0009                     	;# 
  2799  000A                     	;# 
  2800  000B                     	;# 
  2801  000C                     	;# 
  2802  000D                     	;# 
  2803  000E                     	;# 
  2804  0011                     	;# 
  2805  0012                     	;# 
  2806  0013                     	;# 
  2807  0015                     	;# 
  2808  0016                     	;# 
  2809  0016                     	;# 
  2810  0017                     	;# 
  2811  0018                     	;# 
  2812  0019                     	;# 
  2813  001A                     	;# 
  2814  001B                     	;# 
  2815  001C                     	;# 
  2816  008C                     	;# 
  2817  008D                     	;# 
  2818  008E                     	;# 
  2819  0091                     	;# 
  2820  0092                     	;# 
  2821  0093                     	;# 
  2822  0095                     	;# 
  2823  0096                     	;# 
  2824  0097                     	;# 
  2825  0098                     	;# 
  2826  0099                     	;# 
  2827  009A                     	;# 
  2828  009B                     	;# 
  2829  009B                     	;# 
  2830  009C                     	;# 
  2831  009D                     	;# 
  2832  009E                     	;# 
  2833  009F                     	;# 
  2834  010C                     	;# 
  2835  010D                     	;# 
  2836  010E                     	;# 
  2837  0111                     	;# 
  2838  0112                     	;# 
  2839  0113                     	;# 
  2840  0114                     	;# 
  2841  0115                     	;# 
  2842  0116                     	;# 
  2843  0117                     	;# 
  2844  0118                     	;# 
  2845  0119                     	;# 
  2846  011C                     	;# 
  2847  018C                     	;# 
  2848  018D                     	;# 
  2849  018E                     	;# 
  2850  0191                     	;# 
  2851  0191                     	;# 
  2852  0192                     	;# 
  2853  0193                     	;# 
  2854  0193                     	;# 
  2855  0194                     	;# 
  2856  0195                     	;# 
  2857  0196                     	;# 
  2858  0197                     	;# 
  2859  0199                     	;# 
  2860  0199                     	;# 
  2861  0199                     	;# 
  2862  019A                     	;# 
  2863  019A                     	;# 
  2864  019A                     	;# 
  2865  019B                     	;# 
  2866  019B                     	;# 
  2867  019B                     	;# 
  2868  019B                     	;# 
  2869  019B                     	;# 
  2870  019C                     	;# 
  2871  019C                     	;# 
  2872  019C                     	;# 
  2873  019D                     	;# 
  2874  019D                     	;# 
  2875  019D                     	;# 
  2876  019E                     	;# 
  2877  019E                     	;# 
  2878  019E                     	;# 
  2879  019F                     	;# 
  2880  019F                     	;# 
  2881  019F                     	;# 
  2882  019F                     	;# 
  2883  019F                     	;# 
  2884  020C                     	;# 
  2885  020D                     	;# 
  2886  020E                     	;# 
  2887  0211                     	;# 
  2888  0211                     	;# 
  2889  0212                     	;# 
  2890  0212                     	;# 
  2891  0213                     	;# 
  2892  0213                     	;# 
  2893  0214                     	;# 
  2894  0214                     	;# 
  2895  0215                     	;# 
  2896  0215                     	;# 
  2897  0215                     	;# 
  2898  0215                     	;# 
  2899  0216                     	;# 
  2900  0216                     	;# 
  2901  0217                     	;# 
  2902  0217                     	;# 
  2903  028C                     	;# 
  2904  028D                     	;# 
  2905  028E                     	;# 
  2906  0291                     	;# 
  2907  0291                     	;# 
  2908  0292                     	;# 
  2909  0293                     	;# 
  2910  0293                     	;# 
  2911  0298                     	;# 
  2912  0298                     	;# 
  2913  0299                     	;# 
  2914  029A                     	;# 
  2915  029A                     	;# 
  2916  029E                     	;# 
  2917  030C                     	;# 
  2918  030D                     	;# 
  2919  030E                     	;# 
  2920  038C                     	;# 
  2921  038D                     	;# 
  2922  038E                     	;# 
  2923  0391                     	;# 
  2924  0392                     	;# 
  2925  0393                     	;# 
  2926  0394                     	;# 
  2927  0395                     	;# 
  2928  0396                     	;# 
  2929  0397                     	;# 
  2930  0398                     	;# 
  2931  0399                     	;# 
  2932  0415                     	;# 
  2933  0416                     	;# 
  2934  0417                     	;# 
  2935  041C                     	;# 
  2936  041D                     	;# 
  2937  041E                     	;# 
  2938  0511                     	;# 
  2939  0515                     	;# 
  2940  0617                     	;# 
  2941  0618                     	;# 
  2942  0619                     	;# 
  2943  0619                     	;# 
  2944  061A                     	;# 
  2945  061B                     	;# 
  2946  061C                     	;# 
  2947  061C                     	;# 
  2948  0691                     	;# 
  2949  0692                     	;# 
  2950  0693                     	;# 
  2951  0694                     	;# 
  2952  0695                     	;# 
  2953  0696                     	;# 
  2954  0697                     	;# 
  2955  0698                     	;# 
  2956  0699                     	;# 
  2957  069A                     	;# 
  2958  069B                     	;# 
  2959  069C                     	;# 
  2960  069D                     	;# 
  2961  069E                     	;# 
  2962  069F                     	;# 
  2963  0E0F                     	;# 
  2964  0E10                     	;# 
  2965  0E11                     	;# 
  2966  0E12                     	;# 
  2967  0E13                     	;# 
  2968  0E14                     	;# 
  2969  0E15                     	;# 
  2970  0E17                     	;# 
  2971  0E20                     	;# 
  2972  0E21                     	;# 
  2973  0E22                     	;# 
  2974  0E24                     	;# 
  2975  0E25                     	;# 
  2976  0E28                     	;# 
  2977  0E29                     	;# 
  2978  0E2A                     	;# 
  2979  0E2B                     	;# 
  2980  0E90                     	;# 
  2981  0E91                     	;# 
  2982  0E92                     	;# 
  2983  0E94                     	;# 
  2984  0E95                     	;# 
  2985  0E9C                     	;# 
  2986  0E9D                     	;# 
  2987  0E9E                     	;# 
  2988  0E9F                     	;# 
  2989  0EA0                     	;# 
  2990  0EA1                     	;# 
  2991  0EA2                     	;# 
  2992  0EA3                     	;# 
  2993  0EA4                     	;# 
  2994  0EA5                     	;# 
  2995  0EA6                     	;# 
  2996  0EA7                     	;# 
  2997  0F0F                     	;# 
  2998  0F10                     	;# 
  2999  0F11                     	;# 
  3000  0F12                     	;# 
  3001  0F13                     	;# 
  3002  0F14                     	;# 
  3003  0F15                     	;# 
  3004  0F16                     	;# 
  3005  0F17                     	;# 
  3006  0F18                     	;# 
  3007  0F19                     	;# 
  3008  0F1A                     	;# 
  3009  0F1B                     	;# 
  3010  0F1C                     	;# 
  3011  0F1D                     	;# 
  3012  0F1E                     	;# 
  3013  0F1F                     	;# 
  3014  0F20                     	;# 
  3015  0F21                     	;# 
  3016  0F22                     	;# 
  3017  0F23                     	;# 
  3018  0F24                     	;# 
  3019  0F25                     	;# 
  3020  0F26                     	;# 
  3021  0F27                     	;# 
  3022  0F28                     	;# 
  3023  0F29                     	;# 
  3024  0F2A                     	;# 
  3025  0F2B                     	;# 
  3026  0F2C                     	;# 
  3027  0F2D                     	;# 
  3028  0F9E                     	;# 
  3029  0FE4                     	;# 
  3030  0FE5                     	;# 
  3031  0FE6                     	;# 
  3032  0FE7                     	;# 
  3033  0FE8                     	;# 
  3034  0FE9                     	;# 
  3035  0FEA                     	;# 
  3036  0FEB                     	;# 
  3037  0FED                     	;# 
  3038  0FEE                     	;# 
  3039  0FEF                     	;# 
  3040  0000                     	;# 
  3041  0001                     	;# 
  3042  0002                     	;# 
  3043  0003                     	;# 
  3044  0004                     	;# 
  3045  0005                     	;# 
  3046  0006                     	;# 
  3047  0007                     	;# 
  3048  0008                     	;# 
  3049  0009                     	;# 
  3050  000A                     	;# 
  3051  000B                     	;# 
  3052  000C                     	;# 
  3053  000D                     	;# 
  3054  000E                     	;# 
  3055  0011                     	;# 
  3056  0012                     	;# 
  3057  0013                     	;# 
  3058  0015                     	;# 
  3059  0016                     	;# 
  3060  0016                     	;# 
  3061  0017                     	;# 
  3062  0018                     	;# 
  3063  0019                     	;# 
  3064  001A                     	;# 
  3065  001B                     	;# 
  3066  001C                     	;# 
  3067  008C                     	;# 
  3068  008D                     	;# 
  3069  008E                     	;# 
  3070  0091                     	;# 
  3071  0092                     	;# 
  3072  0093                     	;# 
  3073  0095                     	;# 
  3074  0096                     	;# 
  3075  0097                     	;# 
  3076  0098                     	;# 
  3077  0099                     	;# 
  3078  009A                     	;# 
  3079  009B                     	;# 
  3080  009B                     	;# 
  3081  009C                     	;# 
  3082  009D                     	;# 
  3083  009E                     	;# 
  3084  009F                     	;# 
  3085  010C                     	;# 
  3086  010D                     	;# 
  3087  010E                     	;# 
  3088  0111                     	;# 
  3089  0112                     	;# 
  3090  0113                     	;# 
  3091  0114                     	;# 
  3092  0115                     	;# 
  3093  0116                     	;# 
  3094  0117                     	;# 
  3095  0118                     	;# 
  3096  0119                     	;# 
  3097  011C                     	;# 
  3098  018C                     	;# 
  3099  018D                     	;# 
  3100  018E                     	;# 
  3101  0191                     	;# 
  3102  0191                     	;# 
  3103  0192                     	;# 
  3104  0193                     	;# 
  3105  0193                     	;# 
  3106  0194                     	;# 
  3107  0195                     	;# 
  3108  0196                     	;# 
  3109  0197                     	;# 
  3110  0199                     	;# 
  3111  0199                     	;# 
  3112  0199                     	;# 
  3113  019A                     	;# 
  3114  019A                     	;# 
  3115  019A                     	;# 
  3116  019B                     	;# 
  3117  019B                     	;# 
  3118  019B                     	;# 
  3119  019B                     	;# 
  3120  019B                     	;# 
  3121  019C                     	;# 
  3122  019C                     	;# 
  3123  019C                     	;# 
  3124  019D                     	;# 
  3125  019D                     	;# 
  3126  019D                     	;# 
  3127  019E                     	;# 
  3128  019E                     	;# 
  3129  019E                     	;# 
  3130  019F                     	;# 
  3131  019F                     	;# 
  3132  019F                     	;# 
  3133  019F                     	;# 
  3134  019F                     	;# 
  3135  020C                     	;# 
  3136  020D                     	;# 
  3137  020E                     	;# 
  3138  0211                     	;# 
  3139  0211                     	;# 
  3140  0212                     	;# 
  3141  0212                     	;# 
  3142  0213                     	;# 
  3143  0213                     	;# 
  3144  0214                     	;# 
  3145  0214                     	;# 
  3146  0215                     	;# 
  3147  0215                     	;# 
  3148  0215                     	;# 
  3149  0215                     	;# 
  3150  0216                     	;# 
  3151  0216                     	;# 
  3152  0217                     	;# 
  3153  0217                     	;# 
  3154  028C                     	;# 
  3155  028D                     	;# 
  3156  028E                     	;# 
  3157  0291                     	;# 
  3158  0291                     	;# 
  3159  0292                     	;# 
  3160  0293                     	;# 
  3161  0293                     	;# 
  3162  0298                     	;# 
  3163  0298                     	;# 
  3164  0299                     	;# 
  3165  029A                     	;# 
  3166  029A                     	;# 
  3167  029E                     	;# 
  3168  030C                     	;# 
  3169  030D                     	;# 
  3170  030E                     	;# 
  3171  038C                     	;# 
  3172  038D                     	;# 
  3173  038E                     	;# 
  3174  0391                     	;# 
  3175  0392                     	;# 
  3176  0393                     	;# 
  3177  0394                     	;# 
  3178  0395                     	;# 
  3179  0396                     	;# 
  3180  0397                     	;# 
  3181  0398                     	;# 
  3182  0399                     	;# 
  3183  0415                     	;# 
  3184  0416                     	;# 
  3185  0417                     	;# 
  3186  041C                     	;# 
  3187  041D                     	;# 
  3188  041E                     	;# 
  3189  0511                     	;# 
  3190  0515                     	;# 
  3191  0617                     	;# 
  3192  0618                     	;# 
  3193  0619                     	;# 
  3194  0619                     	;# 
  3195  061A                     	;# 
  3196  061B                     	;# 
  3197  061C                     	;# 
  3198  061C                     	;# 
  3199  0691                     	;# 
  3200  0692                     	;# 
  3201  0693                     	;# 
  3202  0694                     	;# 
  3203  0695                     	;# 
  3204  0696                     	;# 
  3205  0697                     	;# 
  3206  0698                     	;# 
  3207  0699                     	;# 
  3208  069A                     	;# 
  3209  069B                     	;# 
  3210  069C                     	;# 
  3211  069D                     	;# 
  3212  069E                     	;# 
  3213  069F                     	;# 
  3214  0E0F                     	;# 
  3215  0E10                     	;# 
  3216  0E11                     	;# 
  3217  0E12                     	;# 
  3218  0E13                     	;# 
  3219  0E14                     	;# 
  3220  0E15                     	;# 
  3221  0E17                     	;# 
  3222  0E20                     	;# 
  3223  0E21                     	;# 
  3224  0E22                     	;# 
  3225  0E24                     	;# 
  3226  0E25                     	;# 
  3227  0E28                     	;# 
  3228  0E29                     	;# 
  3229  0E2A                     	;# 
  3230  0E2B                     	;# 
  3231  0E90                     	;# 
  3232  0E91                     	;# 
  3233  0E92                     	;# 
  3234  0E94                     	;# 
  3235  0E95                     	;# 
  3236  0E9C                     	;# 
  3237  0E9D                     	;# 
  3238  0E9E                     	;# 
  3239  0E9F                     	;# 
  3240  0EA0                     	;# 
  3241  0EA1                     	;# 
  3242  0EA2                     	;# 
  3243  0EA3                     	;# 
  3244  0EA4                     	;# 
  3245  0EA5                     	;# 
  3246  0EA6                     	;# 
  3247  0EA7                     	;# 
  3248  0F0F                     	;# 
  3249  0F10                     	;# 
  3250  0F11                     	;# 
  3251  0F12                     	;# 
  3252  0F13                     	;# 
  3253  0F14                     	;# 
  3254  0F15                     	;# 
  3255  0F16                     	;# 
  3256  0F17                     	;# 
  3257  0F18                     	;# 
  3258  0F19                     	;# 
  3259  0F1A                     	;# 
  3260  0F1B                     	;# 
  3261  0F1C                     	;# 
  3262  0F1D                     	;# 
  3263  0F1E                     	;# 
  3264  0F1F                     	;# 
  3265  0F20                     	;# 
  3266  0F21                     	;# 
  3267  0F22                     	;# 
  3268  0F23                     	;# 
  3269  0F24                     	;# 
  3270  0F25                     	;# 
  3271  0F26                     	;# 
  3272  0F27                     	;# 
  3273  0F28                     	;# 
  3274  0F29                     	;# 
  3275  0F2A                     	;# 
  3276  0F2B                     	;# 
  3277  0F2C                     	;# 
  3278  0F2D                     	;# 
  3279  0F9E                     	;# 
  3280  0FE4                     	;# 
  3281  0FE5                     	;# 
  3282  0FE6                     	;# 
  3283  0FE7                     	;# 
  3284  0FE8                     	;# 
  3285  0FE9                     	;# 
  3286  0FEA                     	;# 
  3287  0FEB                     	;# 
  3288  0FED                     	;# 
  3289  0FEE                     	;# 
  3290  0FEF                     	;# 
  3291  0000                     	;# 
  3292  0001                     	;# 
  3293  0002                     	;# 
  3294  0003                     	;# 
  3295  0004                     	;# 
  3296  0005                     	;# 
  3297  0006                     	;# 
  3298  0007                     	;# 
  3299  0008                     	;# 
  3300  0009                     	;# 
  3301  000A                     	;# 
  3302  000B                     	;# 
  3303  000C                     	;# 
  3304  000D                     	;# 
  3305  000E                     	;# 
  3306  0011                     	;# 
  3307  0012                     	;# 
  3308  0013                     	;# 
  3309  0015                     	;# 
  3310  0016                     	;# 
  3311  0016                     	;# 
  3312  0017                     	;# 
  3313  0018                     	;# 
  3314  0019                     	;# 
  3315  001A                     	;# 
  3316  001B                     	;# 
  3317  001C                     	;# 
  3318  008C                     	;# 
  3319  008D                     	;# 
  3320  008E                     	;# 
  3321  0091                     	;# 
  3322  0092                     	;# 
  3323  0093                     	;# 
  3324  0095                     	;# 
  3325  0096                     	;# 
  3326  0097                     	;# 
  3327  0098                     	;# 
  3328  0099                     	;# 
  3329  009A                     	;# 
  3330  009B                     	;# 
  3331  009B                     	;# 
  3332  009C                     	;# 
  3333  009D                     	;# 
  3334  009E                     	;# 
  3335  009F                     	;# 
  3336  010C                     	;# 
  3337  010D                     	;# 
  3338  010E                     	;# 
  3339  0111                     	;# 
  3340  0112                     	;# 
  3341  0113                     	;# 
  3342  0114                     	;# 
  3343  0115                     	;# 
  3344  0116                     	;# 
  3345  0117                     	;# 
  3346  0118                     	;# 
  3347  0119                     	;# 
  3348  011C                     	;# 
  3349  018C                     	;# 
  3350  018D                     	;# 
  3351  018E                     	;# 
  3352  0191                     	;# 
  3353  0191                     	;# 
  3354  0192                     	;# 
  3355  0193                     	;# 
  3356  0193                     	;# 
  3357  0194                     	;# 
  3358  0195                     	;# 
  3359  0196                     	;# 
  3360  0197                     	;# 
  3361  0199                     	;# 
  3362  0199                     	;# 
  3363  0199                     	;# 
  3364  019A                     	;# 
  3365  019A                     	;# 
  3366  019A                     	;# 
  3367  019B                     	;# 
  3368  019B                     	;# 
  3369  019B                     	;# 
  3370  019B                     	;# 
  3371  019B                     	;# 
  3372  019C                     	;# 
  3373  019C                     	;# 
  3374  019C                     	;# 
  3375  019D                     	;# 
  3376  019D                     	;# 
  3377  019D                     	;# 
  3378  019E                     	;# 
  3379  019E                     	;# 
  3380  019E                     	;# 
  3381  019F                     	;# 
  3382  019F                     	;# 
  3383  019F                     	;# 
  3384  019F                     	;# 
  3385  019F                     	;# 
  3386  020C                     	;# 
  3387  020D                     	;# 
  3388  020E                     	;# 
  3389  0211                     	;# 
  3390  0211                     	;# 
  3391  0212                     	;# 
  3392  0212                     	;# 
  3393  0213                     	;# 
  3394  0213                     	;# 
  3395  0214                     	;# 
  3396  0214                     	;# 
  3397  0215                     	;# 
  3398  0215                     	;# 
  3399  0215                     	;# 
  3400  0215                     	;# 
  3401  0216                     	;# 
  3402  0216                     	;# 
  3403  0217                     	;# 
  3404  0217                     	;# 
  3405  028C                     	;# 
  3406  028D                     	;# 
  3407  028E                     	;# 
  3408  0291                     	;# 
  3409  0291                     	;# 
  3410  0292                     	;# 
  3411  0293                     	;# 
  3412  0293                     	;# 
  3413  0298                     	;# 
  3414  0298                     	;# 
  3415  0299                     	;# 
  3416  029A                     	;# 
  3417  029A                     	;# 
  3418  029E                     	;# 
  3419  030C                     	;# 
  3420  030D                     	;# 
  3421  030E                     	;# 
  3422  038C                     	;# 
  3423  038D                     	;# 
  3424  038E                     	;# 
  3425  0391                     	;# 
  3426  0392                     	;# 
  3427  0393                     	;# 
  3428  0394                     	;# 
  3429  0395                     	;# 
  3430  0396                     	;# 
  3431  0397                     	;# 
  3432  0398                     	;# 
  3433  0399                     	;# 
  3434  0415                     	;# 
  3435  0416                     	;# 
  3436  0417                     	;# 
  3437  041C                     	;# 
  3438  041D                     	;# 
  3439  041E                     	;# 
  3440  0511                     	;# 
  3441  0515                     	;# 
  3442  0617                     	;# 
  3443  0618                     	;# 
  3444  0619                     	;# 
  3445  0619                     	;# 
  3446  061A                     	;# 
  3447  061B                     	;# 
  3448  061C                     	;# 
  3449  061C                     	;# 
  3450  0691                     	;# 
  3451  0692                     	;# 
  3452  0693                     	;# 
  3453  0694                     	;# 
  3454  0695                     	;# 
  3455  0696                     	;# 
  3456  0697                     	;# 
  3457  0698                     	;# 
  3458  0699                     	;# 
  3459  069A                     	;# 
  3460  069B                     	;# 
  3461  069C                     	;# 
  3462  069D                     	;# 
  3463  069E                     	;# 
  3464  069F                     	;# 
  3465  0E0F                     	;# 
  3466  0E10                     	;# 
  3467  0E11                     	;# 
  3468  0E12                     	;# 
  3469  0E13                     	;# 
  3470  0E14                     	;# 
  3471  0E15                     	;# 
  3472  0E17                     	;# 
  3473  0E20                     	;# 
  3474  0E21                     	;# 
  3475  0E22                     	;# 
  3476  0E24                     	;# 
  3477  0E25                     	;# 
  3478  0E28                     	;# 
  3479  0E29                     	;# 
  3480  0E2A                     	;# 
  3481  0E2B                     	;# 
  3482  0E90                     	;# 
  3483  0E91                     	;# 
  3484  0E92                     	;# 
  3485  0E94                     	;# 
  3486  0E95                     	;# 
  3487  0E9C                     	;# 
  3488  0E9D                     	;# 
  3489  0E9E                     	;# 
  3490  0E9F                     	;# 
  3491  0EA0                     	;# 
  3492  0EA1                     	;# 
  3493  0EA2                     	;# 
  3494  0EA3                     	;# 
  3495  0EA4                     	;# 
  3496  0EA5                     	;# 
  3497  0EA6                     	;# 
  3498  0EA7                     	;# 
  3499  0F0F                     	;# 
  3500  0F10                     	;# 
  3501  0F11                     	;# 
  3502  0F12                     	;# 
  3503  0F13                     	;# 
  3504  0F14                     	;# 
  3505  0F15                     	;# 
  3506  0F16                     	;# 
  3507  0F17                     	;# 
  3508  0F18                     	;# 
  3509  0F19                     	;# 
  3510  0F1A                     	;# 
  3511  0F1B                     	;# 
  3512  0F1C                     	;# 
  3513  0F1D                     	;# 
  3514  0F1E                     	;# 
  3515  0F1F                     	;# 
  3516  0F20                     	;# 
  3517  0F21                     	;# 
  3518  0F22                     	;# 
  3519  0F23                     	;# 
  3520  0F24                     	;# 
  3521  0F25                     	;# 
  3522  0F26                     	;# 
  3523  0F27                     	;# 
  3524  0F28                     	;# 
  3525  0F29                     	;# 
  3526  0F2A                     	;# 
  3527  0F2B                     	;# 
  3528  0F2C                     	;# 
  3529  0F2D                     	;# 
  3530  0F9E                     	;# 
  3531  0FE4                     	;# 
  3532  0FE5                     	;# 
  3533  0FE6                     	;# 
  3534  0FE7                     	;# 
  3535  0FE8                     	;# 
  3536  0FE9                     	;# 
  3537  0FEA                     	;# 
  3538  0FEB                     	;# 
  3539  0FED                     	;# 
  3540  0FEE                     	;# 
  3541  0FEF                     	;# 
  3542  0000                     	;# 
  3543  0001                     	;# 
  3544  0002                     	;# 
  3545  0003                     	;# 
  3546  0004                     	;# 
  3547  0005                     	;# 
  3548  0006                     	;# 
  3549  0007                     	;# 
  3550  0008                     	;# 
  3551  0009                     	;# 
  3552  000A                     	;# 
  3553  000B                     	;# 
  3554  000C                     	;# 
  3555  000D                     	;# 
  3556  000E                     	;# 
  3557  0011                     	;# 
  3558  0012                     	;# 
  3559  0013                     	;# 
  3560  0015                     	;# 
  3561  0016                     	;# 
  3562  0016                     	;# 
  3563  0017                     	;# 
  3564  0018                     	;# 
  3565  0019                     	;# 
  3566  001A                     	;# 
  3567  001B                     	;# 
  3568  001C                     	;# 
  3569  008C                     	;# 
  3570  008D                     	;# 
  3571  008E                     	;# 
  3572  0091                     	;# 
  3573  0092                     	;# 
  3574  0093                     	;# 
  3575  0095                     	;# 
  3576  0096                     	;# 
  3577  0097                     	;# 
  3578  0098                     	;# 
  3579  0099                     	;# 
  3580  009A                     	;# 
  3581  009B                     	;# 
  3582  009B                     	;# 
  3583  009C                     	;# 
  3584  009D                     	;# 
  3585  009E                     	;# 
  3586  009F                     	;# 
  3587  010C                     	;# 
  3588  010D                     	;# 
  3589  010E                     	;# 
  3590  0111                     	;# 
  3591  0112                     	;# 
  3592  0113                     	;# 
  3593  0114                     	;# 
  3594  0115                     	;# 
  3595  0116                     	;# 
  3596  0117                     	;# 
  3597  0118                     	;# 
  3598  0119                     	;# 
  3599  011C                     	;# 
  3600  018C                     	;# 
  3601  018D                     	;# 
  3602  018E                     	;# 
  3603  0191                     	;# 
  3604  0191                     	;# 
  3605  0192                     	;# 
  3606  0193                     	;# 
  3607  0193                     	;# 
  3608  0194                     	;# 
  3609  0195                     	;# 
  3610  0196                     	;# 
  3611  0197                     	;# 
  3612  0199                     	;# 
  3613  0199                     	;# 
  3614  0199                     	;# 
  3615  019A                     	;# 
  3616  019A                     	;# 
  3617  019A                     	;# 
  3618  019B                     	;# 
  3619  019B                     	;# 
  3620  019B                     	;# 
  3621  019B                     	;# 
  3622  019B                     	;# 
  3623  019C                     	;# 
  3624  019C                     	;# 
  3625  019C                     	;# 
  3626  019D                     	;# 
  3627  019D                     	;# 
  3628  019D                     	;# 
  3629  019E                     	;# 
  3630  019E                     	;# 
  3631  019E                     	;# 
  3632  019F                     	;# 
  3633  019F                     	;# 
  3634  019F                     	;# 
  3635  019F                     	;# 
  3636  019F                     	;# 
  3637  020C                     	;# 
  3638  020D                     	;# 
  3639  020E                     	;# 
  3640  0211                     	;# 
  3641  0211                     	;# 
  3642  0212                     	;# 
  3643  0212                     	;# 
  3644  0213                     	;# 
  3645  0213                     	;# 
  3646  0214                     	;# 
  3647  0214                     	;# 
  3648  0215                     	;# 
  3649  0215                     	;# 
  3650  0215                     	;# 
  3651  0215                     	;# 
  3652  0216                     	;# 
  3653  0216                     	;# 
  3654  0217                     	;# 
  3655  0217                     	;# 
  3656  028C                     	;# 
  3657  028D                     	;# 
  3658  028E                     	;# 
  3659  0291                     	;# 
  3660  0291                     	;# 
  3661  0292                     	;# 
  3662  0293                     	;# 
  3663  0293                     	;# 
  3664  0298                     	;# 
  3665  0298                     	;# 
  3666  0299                     	;# 
  3667  029A                     	;# 
  3668  029A                     	;# 
  3669  029E                     	;# 
  3670  030C                     	;# 
  3671  030D                     	;# 
  3672  030E                     	;# 
  3673  038C                     	;# 
  3674  038D                     	;# 
  3675  038E                     	;# 
  3676  0391                     	;# 
  3677  0392                     	;# 
  3678  0393                     	;# 
  3679  0394                     	;# 
  3680  0395                     	;# 
  3681  0396                     	;# 
  3682  0397                     	;# 
  3683  0398                     	;# 
  3684  0399                     	;# 
  3685  0415                     	;# 
  3686  0416                     	;# 
  3687  0417                     	;# 
  3688  041C                     	;# 
  3689  041D                     	;# 
  3690  041E                     	;# 
  3691  0511                     	;# 
  3692  0515                     	;# 
  3693  0617                     	;# 
  3694  0618                     	;# 
  3695  0619                     	;# 
  3696  0619                     	;# 
  3697  061A                     	;# 
  3698  061B                     	;# 
  3699  061C                     	;# 
  3700  061C                     	;# 
  3701  0691                     	;# 
  3702  0692                     	;# 
  3703  0693                     	;# 
  3704  0694                     	;# 
  3705  0695                     	;# 
  3706  0696                     	;# 
  3707  0697                     	;# 
  3708  0698                     	;# 
  3709  0699                     	;# 
  3710  069A                     	;# 
  3711  069B                     	;# 
  3712  069C                     	;# 
  3713  069D                     	;# 
  3714  069E                     	;# 
  3715  069F                     	;# 
  3716  0E0F                     	;# 
  3717  0E10                     	;# 
  3718  0E11                     	;# 
  3719  0E12                     	;# 
  3720  0E13                     	;# 
  3721  0E14                     	;# 
  3722  0E15                     	;# 
  3723  0E17                     	;# 
  3724  0E20                     	;# 
  3725  0E21                     	;# 
  3726  0E22                     	;# 
  3727  0E24                     	;# 
  3728  0E25                     	;# 
  3729  0E28                     	;# 
  3730  0E29                     	;# 
  3731  0E2A                     	;# 
  3732  0E2B                     	;# 
  3733  0E90                     	;# 
  3734  0E91                     	;# 
  3735  0E92                     	;# 
  3736  0E94                     	;# 
  3737  0E95                     	;# 
  3738  0E9C                     	;# 
  3739  0E9D                     	;# 
  3740  0E9E                     	;# 
  3741  0E9F                     	;# 
  3742  0EA0                     	;# 
  3743  0EA1                     	;# 
  3744  0EA2                     	;# 
  3745  0EA3                     	;# 
  3746  0EA4                     	;# 
  3747  0EA5                     	;# 
  3748  0EA6                     	;# 
  3749  0EA7                     	;# 
  3750  0F0F                     	;# 
  3751  0F10                     	;# 
  3752  0F11                     	;# 
  3753  0F12                     	;# 
  3754  0F13                     	;# 
  3755  0F14                     	;# 
  3756  0F15                     	;# 
  3757  0F16                     	;# 
  3758  0F17                     	;# 
  3759  0F18                     	;# 
  3760  0F19                     	;# 
  3761  0F1A                     	;# 
  3762  0F1B                     	;# 
  3763  0F1C                     	;# 
  3764  0F1D                     	;# 
  3765  0F1E                     	;# 
  3766  0F1F                     	;# 
  3767  0F20                     	;# 
  3768  0F21                     	;# 
  3769  0F22                     	;# 
  3770  0F23                     	;# 
  3771  0F24                     	;# 
  3772  0F25                     	;# 
  3773  0F26                     	;# 
  3774  0F27                     	;# 
  3775  0F28                     	;# 
  3776  0F29                     	;# 
  3777  0F2A                     	;# 
  3778  0F2B                     	;# 
  3779  0F2C                     	;# 
  3780  0F2D                     	;# 
  3781  0F9E                     	;# 
  3782  0FE4                     	;# 
  3783  0FE5                     	;# 
  3784  0FE6                     	;# 
  3785  0FE7                     	;# 
  3786  0FE8                     	;# 
  3787  0FE9                     	;# 
  3788  0FEA                     	;# 
  3789  0FEB                     	;# 
  3790  0FED                     	;# 
  3791  0FEE                     	;# 
  3792  0FEF                     	;# 
  3793                           
  3794 ;; Function _TMR1_DefaultInterruptHandler is unused but had its address taken
  3795  0000                     
  3796                           	psect	stringtext
  3797  00F0                     __pstringtext:	
  3798  00F0                     _dpowers:	
  3799  00F0  3401               	retlw	1
  3800  00F1  3400               	retlw	0
  3801  00F2  3400               	retlw	0
  3802  00F3  3400               	retlw	0
  3803  00F4  340A               	retlw	10
  3804  00F5  3400               	retlw	0
  3805  00F6  3400               	retlw	0
  3806  00F7  3400               	retlw	0
  3807  00F8  3464               	retlw	100
  3808  00F9  3400               	retlw	0
  3809  00FA  3400               	retlw	0
  3810  00FB  3400               	retlw	0
  3811  00FC  34E8               	retlw	232
  3812  00FD  3403               	retlw	3
  3813  00FE  3400               	retlw	0
  3814  00FF  3400               	retlw	0
  3815  0100  3410               	retlw	16
  3816  0101  3427               	retlw	39
  3817  0102  3400               	retlw	0
  3818  0103  3400               	retlw	0
  3819  0104  34A0               	retlw	160
  3820  0105  3486               	retlw	134
  3821  0106  3401               	retlw	1
  3822  0107  3400               	retlw	0
  3823  0108  3440               	retlw	64
  3824  0109  3442               	retlw	66
  3825  010A  340F               	retlw	15
  3826  010B  3400               	retlw	0
  3827  010C  3480               	retlw	128
  3828  010D  3496               	retlw	150
  3829  010E  3498               	retlw	152
  3830  010F  3400               	retlw	0
  3831  0110  3400               	retlw	0
  3832  0111  34E1               	retlw	225
  3833  0112  34F5               	retlw	245
  3834  0113  3405               	retlw	5
  3835  0114  3400               	retlw	0
  3836  0115  34CA               	retlw	202
  3837  0116  349A               	retlw	154
  3838  0117  343B               	retlw	59
  3839  0118                     __end_of_dpowers:	
  3840  0118                     __npowers_:	
  3841  0118  3400               	retlw	0
  3842  0119  3480               	retlw	128
  3843  011A  343F               	retlw	63
  3844  011B  34CD               	retlw	205
  3845  011C  34CC               	retlw	204
  3846  011D  343D               	retlw	61
  3847  011E  34D7               	retlw	215
  3848  011F  3423               	retlw	35
  3849  0120  343C               	retlw	60
  3850  0121  3412               	retlw	18
  3851  0122  3483               	retlw	131
  3852  0123  343A               	retlw	58
  3853  0124  34B7               	retlw	183
  3854  0125  34D1               	retlw	209
  3855  0126  3438               	retlw	56
  3856  0127  34C6               	retlw	198
  3857  0128  3427               	retlw	39
  3858  0129  3437               	retlw	55
  3859  012A  3438               	retlw	56
  3860  012B  3486               	retlw	134
  3861  012C  3435               	retlw	53
  3862  012D  34C0               	retlw	192
  3863  012E  34D6               	retlw	214
  3864  012F  3433               	retlw	51
  3865  0130  34CC               	retlw	204
  3866  0131  342B               	retlw	43
  3867  0132  3432               	retlw	50
  3868  0133  3470               	retlw	112
  3869  0134  3489               	retlw	137
  3870  0135  3430               	retlw	48
  3871  0136  34E7               	retlw	231
  3872  0137  34DB               	retlw	219
  3873  0138  342E               	retlw	46
  3874  0139  34E5               	retlw	229
  3875  013A  343C               	retlw	60
  3876  013B  341E               	retlw	30
  3877  013C  3442               	retlw	66
  3878  013D  34A2               	retlw	162
  3879  013E  340D               	retlw	13
  3880  013F                     __end_of__npowers_:	
  3881  013F                     __powers_:	
  3882  013F  3400               	retlw	0
  3883  0140  3480               	retlw	128
  3884  0141  343F               	retlw	63
  3885  0142  3400               	retlw	0
  3886  0143  3420               	retlw	32
  3887  0144  3441               	retlw	65
  3888  0145  3400               	retlw	0
  3889  0146  34C8               	retlw	200
  3890  0147  3442               	retlw	66
  3891  0148  3400               	retlw	0
  3892  0149  347A               	retlw	122
  3893  014A  3444               	retlw	68
  3894  014B  3440               	retlw	64
  3895  014C  341C               	retlw	28
  3896  014D  3446               	retlw	70
  3897  014E  3450               	retlw	80
  3898  014F  34C3               	retlw	195
  3899  0150  3447               	retlw	71
  3900  0151  3424               	retlw	36
  3901  0152  3474               	retlw	116
  3902  0153  3449               	retlw	73
  3903  0154  3497               	retlw	151
  3904  0155  3418               	retlw	24
  3905  0156  344B               	retlw	75
  3906  0157  34BC               	retlw	188
  3907  0158  34BE               	retlw	190
  3908  0159  344C               	retlw	76
  3909  015A  346B               	retlw	107
  3910  015B  346E               	retlw	110
  3911  015C  344E               	retlw	78
  3912  015D  3403               	retlw	3
  3913  015E  3415               	retlw	21
  3914  015F  3450               	retlw	80
  3915  0160  3479               	retlw	121
  3916  0161  34AD               	retlw	173
  3917  0162  3460               	retlw	96
  3918  0163  34F3               	retlw	243
  3919  0164  3449               	retlw	73
  3920  0165  3471               	retlw	113
  3921  0166                     __end_of__powers_:	
  3922  0166                     STR_2:	
  3923  0166  3442               	retlw	66	;'B'
  3924  0167  346F               	retlw	111	;'o'
  3925  0168  346F               	retlw	111	;'o'
  3926  0169  3473               	retlw	115	;'s'
  3927  016A  3474               	retlw	116	;'t'
  3928  016B  3420               	retlw	32	;' '
  3929  016C  3449               	retlw	73	;'I'
  3930  016D  346E               	retlw	110	;'n'
  3931  016E  3469               	retlw	105	;'i'
  3932  016F  3474               	retlw	116	;'t'
  3933  0170  3469               	retlw	105	;'i'
  3934  0171  3461               	retlw	97	;'a'
  3935  0172  346C               	retlw	108	;'l'
  3936  0173  3469               	retlw	105	;'i'
  3937  0174  347A               	retlw	122	;'z'
  3938  0175  3469               	retlw	105	;'i'
  3939  0176  346E               	retlw	110	;'n'
  3940  0177  3467               	retlw	103	;'g'
  3941  0178  342E               	retlw	46	;'.'
  3942  0179  342E               	retlw	46	;'.'
  3943  017A  342E               	retlw	46	;'.'
  3944  017B  342E               	retlw	46	;'.'
  3945  017C  342E               	retlw	46	;'.'
  3946  017D  3400               	retlw	0
  3947  017E                     STR_1:	
  3948  017E  3425               	retlw	37	;'%'
  3949  017F  3466               	retlw	102	;'f'
  3950  0180  3400               	retlw	0
  3951                           
  3952                           ; #config settings
  3953  0000                     
  3954                           	psect	nvBANK0
  3955  0020                     __pnvBANK0:	
  3956  0020                     _ADC_SCALE:	
  3957  0020                     	ds	3
  3958  0023                     _DA_LSB:	
  3959  0023                     	ds	3
  3960  0026                     _M1:	
  3961  0026                     	ds	3
  3962  0029                     _M2:	
  3963  0029                     	ds	3
  3964  002C                     _Vref:	
  3965  002C                     	ds	3
  3966  002F                     _a0:	
  3967  002F                     	ds	3
  3968  0032                     _a1:	
  3969  0032                     	ds	3
  3970  0035                     _a2:	
  3971  0035                     	ds	3
  3972  0038                     _b1:	
  3973  0038                     	ds	3
  3974  003B                     _b2:	
  3975  003B                     	ds	3
  3976  003E                     _rk:	
  3977  003E                     	ds	3
  3978  0041                     _rk_1:	
  3979  0041                     	ds	3
  3980  0044                     _rk_2:	
  3981  0044                     	ds	3
  3982  0047                     _rk_3:	
  3983  0047                     	ds	3
  3984  0011                     _PIR1bits	set	17
  3985  001B                     _PR2	set	27
  3986  0018                     _T1CON	set	24
  3987  0018                     _T1CONbits	set	24
  3988  0019                     _T1GCON	set	25
  3989  0019                     _T1GCONbits	set	25
  3990  001C                     _T2CON	set	28
  3991  001C                     _T2CONbits	set	28
  3992  0017                     _TMR1H	set	23
  3993  0016                     _TMR1L	set	22
  3994  001A                     _TMR2	set	26
  3995  005F                     _GIE	set	95
  3996  005E                     _PEIE	set	94
  3997  0088                     _TMR1IF	set	136
  3998  0089                     _TMR2IF	set	137
  3999  00E2                     _TMR2ON	set	226
  4000  009D                     _ADCON0	set	157
  4001  009D                     _ADCON0bits	set	157
  4002  009E                     _ADCON1	set	158
  4003  009F                     _ADCON2	set	159
  4004  009C                     _ADRESH	set	156
  4005  009B                     _ADRESL	set	155
  4006  0095                     _OPTION_REGbits	set	149
  4007  0099                     _OSCCON	set	153
  4008  009A                     _OSCSTAT	set	154
  4009  0098                     _OSCTUNE	set	152
  4010  0091                     _PIE1bits	set	145
  4011  008C                     _TRISA	set	140
  4012  008D                     _TRISB	set	141
  4013  008E                     _TRISC	set	142
  4014  04D6                     _PLLR	set	1238
  4015  0488                     _TMR1IE	set	1160
  4016  0489                     _TMR2IE	set	1161
  4017  0464                     _TRISA4	set	1124
  4018  0465                     _TRISA5	set	1125
  4019  046E                     _TRISB6	set	1134
  4020  0471                     _TRISC1	set	1137
  4021  0111                     _CM1CON0	set	273
  4022  0112                     _CM1CON1	set	274
  4023  0115                     _CMOUTbits	set	277
  4024  0118                     _DAC1CON0	set	280
  4025  0119                     _DAC1CON1	set	281
  4026  0117                     _FVRCON	set	279
  4027  0117                     _FVRCONbits	set	279
  4028  010C                     _LATA	set	268
  4029  010D                     _LATB	set	269
  4030  010E                     _LATC	set	270
  4031  0860                     _LATA0	set	2144
  4032  086E                     _LATB6	set	2158
  4033  0872                     _LATC2	set	2162
  4034  0873                     _LATC3	set	2163
  4035  018C                     _ANSELA	set	396
  4036  018D                     _ANSELB	set	397
  4037  018E                     _ANSELC	set	398
  4038  019F                     _BAUD1CON	set	415
  4039  0199                     _RC1REG	set	409
  4040  019D                     _RC1STA	set	413
  4041  019D                     _RC1STAbits	set	413
  4042  019C                     _SP1BRGH	set	412
  4043  019B                     _SP1BRGL	set	411
  4044  019A                     _TX1REG	set	410
  4045  019E                     _TX1STA	set	414
  4046  0CF1                     _TRMT	set	3313
  4047  020C                     _WPUA	set	524
  4048  020D                     _WPUB	set	525
  4049  020E                     _WPUC	set	526
  4050  1072                     _WPUC2	set	4210
  4051  0293                     _CCP1CON	set	659
  4052  029A                     _CCP2CON	set	666
  4053  0292                     _CCPR1H	set	658
  4054  0291                     _CCPR1L	set	657
  4055  0299                     _CCPR2H	set	665
  4056  0298                     _CCPR2L	set	664
  4057  029E                     _CCPTMRSbits	set	670
  4058  1498                     _CCP1M0	set	5272
  4059  1499                     _CCP1M1	set	5273
  4060  149A                     _CCP1M2	set	5274
  4061  149B                     _CCP1M3	set	5275
  4062  0619                     _PWM3CON	set	1561
  4063  0618                     _PWM3DCH	set	1560
  4064  0617                     _PWM3DCL	set	1559
  4065  069D                     _COG1ASD0	set	1693
  4066  069D                     _COG1ASD0bits	set	1693
  4067  069E                     _COG1ASD1	set	1694
  4068  0694                     _COG1BLKF	set	1684
  4069  0693                     _COG1BLKR	set	1683
  4070  0697                     _COG1CON0	set	1687
  4071  0698                     _COG1CON1	set	1688
  4072  0696                     _COG1DBF	set	1686
  4073  0695                     _COG1DBR	set	1685
  4074  069B                     _COG1FIS	set	1691
  4075  069C                     _COG1FSIM	set	1692
  4076  0692                     _COG1PHF	set	1682
  4077  0691                     _COG1PHR	set	1681
  4078  0699                     _COG1RIS	set	1689
  4079  069A                     _COG1RSIM	set	1690
  4080  069F                     _COG1STR	set	1695
  4081  0E0F                     _PPSLOCK	set	3599
  4082  0E0F                     _PPSLOCKbits	set	3599
  4083  0E92                     _RA2PPS	set	3730
  4084  0E94                     _RA4PPS	set	3732
  4085  0E94                     _RA4PPSbits	set	3732
  4086  0E95                     _RA5PPS	set	3733
  4087  0E95                     _RA5PPSbits	set	3733
  4088  0EA1                     _RC1PPS	set	3745
  4089  0EA2                     _RC2PPS	set	3746
  4090  0EA2                     _RC2PPSbits	set	3746
  4091                           
  4092                           	psect	cinit
  4093  0021                     start_initialization:	
  4094  0021                     __initialization:	
  4095                           
  4096                           ; Clear objects allocated to COMMON
  4097  0021  01F7               	clrf	__pbssCOMMON& (0+127)
  4098  0022  01F8               	clrf	(__pbssCOMMON+1)& (0+127)
  4099  0023  01F9               	clrf	(__pbssCOMMON+2)& (0+127)
  4100  0024  01FA               	clrf	(__pbssCOMMON+3)& (0+127)
  4101                           
  4102                           ; Clear objects allocated to BANK0
  4103  0025  304A               	movlw	low __pbssBANK0
  4104  0026  0084               	movwf	4
  4105  0027  3000               	movlw	high __pbssBANK0
  4106  0028  0085               	movwf	5
  4107  0029  3022               	movlw	34
  4108  002A  3182  2203         	fcall	clear_ram0
  4109  002C                     end_of_initialization:	
  4110                           ;End of C runtime variable initialization code
  4111                           
  4112  002C                     __end_of__initialization:	
  4113  002C  107E               	bcf	int$flags,0	;clear compiler interrupt flag (level 1)
  4114  002D  0020               	movlb	0
  4115  002E  3180  2830         	ljmp	_main	;jump to C main() function
  4116                           
  4117                           	psect	bssCOMMON
  4118  0077                     __pbssCOMMON:	
  4119  0077                     _timer1ReloadVal:	
  4120  0077                     	ds	2
  4121  0079                     _timerValue:	
  4122  0079                     	ds	2
  4123                           
  4124                           	psect	bssBANK0
  4125  004A                     __pbssBANK0:	
  4126  004A                     USART_WriteValue@F5508:	
  4127  004A                     	ds	15
  4128  0059                     _AD_LSB:	
  4129  0059                     	ds	3
  4130  005C                     _DAC_DISCRETE:	
  4131  005C                     	ds	3
  4132  005F                     _Vc:	
  4133  005F                     	ds	3
  4134  0062                     _Ver:	
  4135  0062                     	ds	3
  4136  0065                     _Vout:	
  4137  0065                     	ds	3
  4138  0068                     _TMR1_InterruptHandler:	
  4139  0068                     	ds	2
  4140  006A                     _adcVal:	
  4141  006A                     	ds	2
  4142                           
  4143                           	psect	clrtext
  4144  0203                     clear_ram0:	
  4145                           ;	Called with FSR0 containing the base address, and
  4146                           ;	WREG with the size to clear
  4147                           
  4148  0203  0064               	clrwdt	;clear the watchdog before getting into this loop
  4149  0204                     clrloop0:	
  4150  0204  0180               	clrf	0	;clear RAM location pointed to by FSR
  4151  0205  3101               	addfsr 0,1
  4152  0206  0B89               	decfsz	9,f	;Have we reached the end of clearing yet?
  4153  0207  2A04               	goto	clrloop0	;have we reached the end yet?
  4154  0208  3400               	retlw	0	;all done for this memory range, return
  4155                           
  4156                           	psect	cstackCOMMON
  4157  0070                     __pcstackCOMMON:	
  4158  0070                     ?_FVR_Initialize:	
  4159  0070                     ?_DAC_Initialize:	
  4160                           ; 1 bytes @ 0x0
  4161                           
  4162  0070                     ?_PWM2_Initialize:	
  4163                           ; 1 bytes @ 0x0
  4164                           
  4165  0070                     ?_COG1_Initialize:	
  4166                           ; 1 bytes @ 0x0
  4167                           
  4168  0070                     ?_TMR2_Initialize:	
  4169                           ; 1 bytes @ 0x0
  4170                           
  4171  0070                     ?_PWM1_Initialize:	
  4172                           ; 1 bytes @ 0x0
  4173                           
  4174  0070                     ?_CMP1_Initialize:	
  4175                           ; 1 bytes @ 0x0
  4176                           
  4177  0070                     ?_ADC_Initialize:	
  4178                           ; 1 bytes @ 0x0
  4179                           
  4180  0070                     ?_TMR2_StartTimer:	
  4181                           ; 1 bytes @ 0x0
  4182                           
  4183  0070                     ?_OSC_Init:	
  4184                           ; 1 bytes @ 0x0
  4185                           
  4186  0070                     ?_USART_Initialize:	
  4187                           ; 1 bytes @ 0x0
  4188                           
  4189  0070                     ?_USART_Write:	
  4190                           ; 1 bytes @ 0x0
  4191                           
  4192  0070                     ?_main:	
  4193                           ; 1 bytes @ 0x0
  4194                           
  4195  0070                     ?_isr:	
  4196                           ; 1 bytes @ 0x0
  4197                           
  4198  0070                     ??_isr:	
  4199                           ; 1 bytes @ 0x0
  4200                           
  4201                           
  4202                           ; 1 bytes @ 0x0
  4203  0070                     	ds	1
  4204  0071                     ??_FVR_Initialize:	
  4205  0071                     ??_DAC_Initialize:	
  4206                           ; 1 bytes @ 0x1
  4207                           
  4208  0071                     ??_PWM2_Initialize:	
  4209                           ; 1 bytes @ 0x1
  4210                           
  4211  0071                     ??_COG1_Initialize:	
  4212                           ; 1 bytes @ 0x1
  4213                           
  4214  0071                     ??_TMR2_Initialize:	
  4215                           ; 1 bytes @ 0x1
  4216                           
  4217  0071                     ??_PWM1_Initialize:	
  4218                           ; 1 bytes @ 0x1
  4219                           
  4220  0071                     ??_CMP1_Initialize:	
  4221                           ; 1 bytes @ 0x1
  4222                           
  4223  0071                     ??_ADC_Initialize:	
  4224                           ; 1 bytes @ 0x1
  4225                           
  4226  0071                     ??_TMR2_StartTimer:	
  4227                           ; 1 bytes @ 0x1
  4228                           
  4229  0071                     ??_OSC_Init:	
  4230                           ; 1 bytes @ 0x1
  4231                           
  4232  0071                     ??_USART_Initialize:	
  4233                           ; 1 bytes @ 0x1
  4234                           
  4235  0071                     ??_USART_Write:	
  4236                           ; 1 bytes @ 0x1
  4237                           
  4238  0071                     USART_Write@txData:	
  4239                           ; 1 bytes @ 0x1
  4240                           
  4241                           
  4242                           ; 1 bytes @ 0x1
  4243  0071                     	ds	1
  4244  0072                     ?_USART_WriteString:	
  4245  0072                     USART_WriteString@_data:	
  4246                           ; 1 bytes @ 0x2
  4247                           
  4248                           
  4249                           ; 2 bytes @ 0x2
  4250  0072                     	ds	2
  4251  0074                     ??_USART_WriteString:	
  4252                           
  4253                           ; 1 bytes @ 0x4
  4254  0074                     	ds	1
  4255  0075                     USART_WriteString@limiter:	
  4256                           
  4257                           ; 2 bytes @ 0x5
  4258  0075                     	ds	2
  4259                           
  4260                           	psect	cstackBANK0
  4261  006C                     __pcstackBANK0:	
  4262  006C                     ??_main:	
  4263                           
  4264                           ; 1 bytes @ 0x0
  4265  006C                     	ds	3
  4266                           
  4267                           	psect	maintext
  4268  0030                     __pmaintext:	
  4269 ;;
  4270 ;;Main: autosize = 0, tempsize = 3, incstack = 0, save=0
  4271 ;;
  4272 ;; *************** function _main *****************
  4273 ;; Defined at:
  4274 ;;		line 187 in file "main.c"
  4275 ;; Parameters:    Size  Location     Type
  4276 ;;		None
  4277 ;; Auto vars:     Size  Location     Type
  4278 ;;  tempVal         3    0        struct _floatToUN8
  4279 ;; Return value:  Size  Location     Type
  4280 ;;                  1    wreg      void 
  4281 ;; Registers used:
  4282 ;;		wreg, fsr0l, fsr0h, status,2, status,0, pclath, cstack
  4283 ;; Tracked objects:
  4284 ;;		On entry : B1F/0
  4285 ;;		On exit  : 0/0
  4286 ;;		Unchanged: 0/0
  4287 ;; Data sizes:     COMMON   BANK0   BANK1   BANK2   BANK3   BANK4   BANK5   BANK6   BANK7   BANK8   BANK9  BANK10  BANK1
      +1  BANK12
  4288 ;;      Params:         0       0       0       0       0       0       0       0       0       0       0       0       
      +0       0
  4289 ;;      Locals:         0       0       0       0       0       0       0       0       0       0       0       0       
      +0       0
  4290 ;;      Temps:          0       3       0       0       0       0       0       0       0       0       0       0       
      +0       0
  4291 ;;      Totals:         0       3       0       0       0       0       0       0       0       0       0       0       
      +0       0
  4292 ;;Total ram usage:        3 bytes
  4293 ;; Hardware stack levels required when called:    3
  4294 ;; This function calls:
  4295 ;;		_ADC_Initialize
  4296 ;;		_CMP1_Initialize
  4297 ;;		_COG1_Initialize
  4298 ;;		_DAC_Initialize
  4299 ;;		_FVR_Initialize
  4300 ;;		_OSC_Init
  4301 ;;		_PWM1_Initialize
  4302 ;;		_PWM2_Initialize
  4303 ;;		_TMR2_Initialize
  4304 ;;		_USART_Initialize
  4305 ;;		_USART_Write
  4306 ;;		_USART_WriteString
  4307 ;; This function is called by:
  4308 ;;		Startup code after reset
  4309 ;; This function uses a non-reentrant model
  4310 ;;
  4311                           
  4312                           
  4313                           ;psect for function _main
  4314  0030                     _main:	
  4315                           
  4316                           ;main.c: 189: OSC_Init();
  4317                           
  4318                           ;incstack = 0
  4319                           ; Regs used in _main: [wreg-fsr0h+status,2+status,0+pclath+cstack]
  4320  0030  3182  2209  3180   	fcall	_OSC_Init
  4321                           
  4322                           ;main.c: 195: a0 = 0.0649 ; a1 = 0.00765; a2 = -0.0571;
  4323  0033  30EA               	movlw	234
  4324  0034  0020               	movlb	0	; select bank0
  4325  0035  00AF               	movwf	_a0
  4326  0036  3084               	movlw	132
  4327  0037  00B0               	movwf	_a0+1
  4328  0038  303D               	movlw	61
  4329  0039  00B1               	movwf	_a0+2
  4330  003A  30AD               	movlw	173
  4331  003B  00B2               	movwf	_a1
  4332  003C  30FA               	movlw	250
  4333  003D  00B3               	movwf	_a1+1
  4334  003E  303B               	movlw	59
  4335  003F  00B4               	movwf	_a1+2
  4336  0040  30E2               	movlw	226
  4337  0041  00B5               	movwf	_a2
  4338  0042  3069               	movlw	105
  4339  0043  00B6               	movwf	_a2+1
  4340  0044  30BD               	movlw	189
  4341  0045  00B7               	movwf	_a2+2
  4342                           
  4343                           ;main.c: 196: b1 = 0.77; b2 = 0.22;
  4344  0046  301F               	movlw	31
  4345  0047  00B8               	movwf	_b1
  4346  0048  3045               	movlw	69
  4347  0049  00B9               	movwf	_b1+1
  4348  004A  303F               	movlw	63
  4349  004B  00BA               	movwf	_b1+2
  4350  004C  3048               	movlw	72
  4351  004D  00BB               	movwf	_b2
  4352  004E  3061               	movlw	97
  4353  004F  00BC               	movwf	_b2+1
  4354  0050  303E               	movlw	62
  4355  0051  00BD               	movwf	_b2+2
  4356                           
  4357                           ;main.c: 198: M1 = 0; M2 = 0; rk = 0; rk_1 = 0; rk_2 = 0; rk_3 = 0;
  4358  0052  3000               	movlw	0
  4359  0053  00A6               	movwf	_M1
  4360  0054  3000               	movlw	0
  4361  0055  00A7               	movwf	_M1+1
  4362  0056  3000               	movlw	0
  4363  0057  00A8               	movwf	_M1+2
  4364  0058  3000               	movlw	0
  4365  0059  00A9               	movwf	_M2
  4366  005A  3000               	movlw	0
  4367  005B  00AA               	movwf	_M2+1
  4368  005C  3000               	movlw	0
  4369  005D  00AB               	movwf	_M2+2
  4370  005E  3000               	movlw	0
  4371  005F  00BE               	movwf	_rk
  4372  0060  3000               	movlw	0
  4373  0061  00BF               	movwf	_rk+1
  4374  0062  3000               	movlw	0
  4375  0063  00C0               	movwf	_rk+2
  4376  0064  3000               	movlw	0
  4377  0065  00C1               	movwf	_rk_1
  4378  0066  3000               	movlw	0
  4379  0067  00C2               	movwf	_rk_1+1
  4380  0068  3000               	movlw	0
  4381  0069  00C3               	movwf	_rk_1+2
  4382  006A  3000               	movlw	0
  4383  006B  00C4               	movwf	_rk_2
  4384  006C  3000               	movlw	0
  4385  006D  00C5               	movwf	_rk_2+1
  4386  006E  3000               	movlw	0
  4387  006F  00C6               	movwf	_rk_2+2
  4388  0070  3000               	movlw	0
  4389  0071  00C7               	movwf	_rk_3
  4390  0072  3000               	movlw	0
  4391  0073  00C8               	movwf	_rk_3+1
  4392  0074  3000               	movlw	0
  4393  0075  00C9               	movwf	_rk_3+2
  4394                           
  4395                           ;main.c: 199: Vref = 2500;
  4396  0076  3040               	movlw	64
  4397  0077  00AC               	movwf	_Vref
  4398  0078  301C               	movlw	28
  4399  0079  00AD               	movwf	_Vref+1
  4400  007A  3045               	movlw	69
  4401  007B  00AE               	movwf	_Vref+2
  4402                           
  4403                           ;main.c: 201: DA_LSB = 256.0/1024.0;
  4404  007C  3000               	movlw	0
  4405  007D  00A3               	movwf	_DA_LSB
  4406  007E  3080               	movlw	128
  4407  007F  00A4               	movwf	_DA_LSB+1
  4408  0080  303E               	movlw	62
  4409  0081  00A5               	movwf	_DA_LSB+2
  4410                           
  4411                           ;main.c: 202: ADC_SCALE = 9.23;
  4412  0082  30AE               	movlw	174
  4413  0083  00A0               	movwf	_ADC_SCALE
  4414  0084  3013               	movlw	19
  4415  0085  00A1               	movwf	_ADC_SCALE+1
  4416  0086  3041               	movlw	65
  4417  0087  00A2               	movwf	_ADC_SCALE+2
  4418                           
  4419                           ;main.c: 214: TRISB6 = 0;
  4420  0088  0021               	movlb	1	; select bank1
  4421  0089  130D               	bcf	13,6	;volatile
  4422                           
  4423                           ;main.c: 215: LATB6 = 0;
  4424  008A  0022               	movlb	2	; select bank2
  4425  008B  130D               	bcf	13,6	;volatile
  4426                           
  4427                           ;main.c: 216: ANSELB &= ~0x40;
  4428  008C  30BF               	movlw	191
  4429  008D  0020               	movlb	0	; select bank0
  4430  008E  00EC               	movwf	??_main
  4431  008F  086C               	movf	??_main,w
  4432  0090  0023               	movlb	3	; select bank3
  4433  0091  058D               	andwf	13,f	;volatile
  4434                           
  4435                           ;main.c: 218: TRISA4 = 0;
  4436  0092  0021               	movlb	1	; select bank1
  4437  0093  120C               	bcf	12,4	;volatile
  4438                           
  4439                           ;main.c: 219: ANSELA &= ~0x10;
  4440  0094  30EF               	movlw	239
  4441  0095  0020               	movlb	0	; select bank0
  4442  0096  00EC               	movwf	??_main
  4443  0097  086C               	movf	??_main,w
  4444  0098  0023               	movlb	3	; select bank3
  4445  0099  058C               	andwf	12,f	;volatile
  4446                           
  4447                           ;main.c: 220: RA4PPS = 0x08;
  4448  009A  3008               	movlw	8
  4449  009B  003D               	movlb	29	; select bank29
  4450  009C  0094               	movwf	20	;volatile
  4451                           
  4452                           ;main.c: 223: LATC3 = 0;
  4453  009D  0022               	movlb	2	; select bank2
  4454  009E  118E               	bcf	14,3	;volatile
  4455                           
  4456                           ;main.c: 224: ANSELC |= 0x80;
  4457  009F  0023               	movlb	3	; select bank3
  4458  00A0  178E               	bsf	14,7	;volatile
  4459                           
  4460                           ;main.c: 225: TRISC |= 0x80;
  4461  00A1  0021               	movlb	1	; select bank1
  4462  00A2  178E               	bsf	14,7	;volatile
  4463                           
  4464                           ;main.c: 227: LATA0 = 0;
  4465  00A3  0022               	movlb	2	; select bank2
  4466  00A4  100C               	bcf	12,0	;volatile
  4467                           
  4468                           ;main.c: 228: ANSELA =
  4469                           ;main.c: 232: ANSELC |= 0x01;
  4470  00A5  0023               	movlb	3	; select bank3
  4471  00A6  140E               	bsf	14,0	;volatile
  4472  00A7  080E               	movf	14,w	;volatile
  4473  00A8  008C               	movwf	12	;volatile
  4474                           
  4475                           ;main.c: 233: TRISC |= 0x01;
  4476  00A9  0021               	movlb	1	; select bank1
  4477  00AA  140E               	bsf	14,0	;volatile
  4478                           
  4479                           ;main.c: 236: LATC2 = 0;
  4480  00AB  0022               	movlb	2	; select bank2
  4481  00AC  110E               	bcf	14,2	;volatile
  4482                           
  4483                           ;main.c: 237: WPUC2 = 1;
  4484  00AD  0024               	movlb	4	; select bank4
  4485  00AE  150E               	bsf	14,2	;volatile
  4486                           
  4487                           ;main.c: 238: ANSELC |= 0x04;
  4488  00AF  0023               	movlb	3	; select bank3
  4489  00B0  150E               	bsf	14,2	;volatile
  4490                           
  4491                           ;main.c: 239: TRISC &= ~0x04;
  4492  00B1  30FB               	movlw	251
  4493  00B2  0020               	movlb	0	; select bank0
  4494  00B3  00EC               	movwf	??_main
  4495  00B4  086C               	movf	??_main,w
  4496  00B5  0021               	movlb	1	; select bank1
  4497  00B6  058E               	andwf	14,f	;volatile
  4498                           
  4499                           ;main.c: 240: RC2PPS = 0x14;
  4500  00B7  3014               	movlw	20
  4501  00B8  003D               	movlb	29	; select bank29
  4502  00B9  00A2               	movwf	34	;volatile
  4503                           
  4504                           ;main.c: 253: PWM1_Initialize();
  4505  00BA  3181  21EA  3180   	fcall	_PWM1_Initialize
  4506                           
  4507                           ;main.c: 254: PWM2_Initialize();
  4508  00BD  3181  21D7  3180   	fcall	_PWM2_Initialize
  4509                           
  4510                           ;main.c: 255: TMR2_Initialize();
  4511  00C0  3181  21E1  3180   	fcall	_TMR2_Initialize
  4512                           
  4513                           ;main.c: 256: COG1_Initialize();
  4514  00C3  3181  21A6  3180   	fcall	_COG1_Initialize
  4515                           
  4516                           ;main.c: 258: FVR_Initialize();
  4517  00C6  3182  2215  3180   	fcall	_FVR_Initialize
  4518                           
  4519                           ;main.c: 259: DAC_Initialize();
  4520  00C9  3182  220F  3180   	fcall	_DAC_Initialize
  4521                           
  4522                           ;main.c: 260: CMP1_Initialize();
  4523  00CC  3181  21BE  3180   	fcall	_CMP1_Initialize
  4524                           
  4525                           ;main.c: 262: ADC_Initialize();
  4526  00CF  3181  21F3  3180   	fcall	_ADC_Initialize
  4527                           
  4528                           ;main.c: 265: USART_Initialize();
  4529  00D2  3181  21CB  3180   	fcall	_USART_Initialize
  4530                           
  4531                           ;main.c: 266: _delay((unsigned long)((100)*(32000000/4000.0)));
  4532  00D5  3005               	movlw	5
  4533  00D6  0020               	movlb	0	; select bank0
  4534  00D7  00EE               	movwf	??_main+2
  4535  00D8  300F               	movlw	15
  4536  00D9  00ED               	movwf	??_main+1
  4537  00DA  30F4               	movlw	244
  4538  00DB  00EC               	movwf	??_main
  4539  00DC                     u247:	
  4540  00DC  0BEC               	decfsz	??_main,f
  4541  00DD  28DC               	goto	u247
  4542  00DE  0BED               	decfsz	??_main+1,f
  4543  00DF  28DC               	goto	u247
  4544  00E0  0BEE               	decfsz	??_main+2,f
  4545  00E1  28DC               	goto	u247
  4546                           
  4547                           ;main.c: 267: USART_WriteString("Boost Initializing.....");
  4548  00E2  3066               	movlw	low (STR_2| (0+32768))
  4549  00E3  00F2               	movwf	USART_WriteString@_data
  4550  00E4  3081               	movlw	high (STR_2| (0+32768))
  4551  00E5  00F3               	movwf	USART_WriteString@_data+1
  4552  00E6  3181  2181  3180   	fcall	_USART_WriteString
  4553                           
  4554                           ;main.c: 269: USART_Write('\n');
  4555  00E9  300A               	movlw	10
  4556  00EA  3181  21FC  3180   	fcall	_USART_Write
  4557                           
  4558                           ;main.c: 271: GIE = 1;
  4559  00ED  178B               	bsf	11,7	;volatile
  4560                           
  4561                           ;main.c: 272: PEIE = 1;
  4562  00EE  170B               	bsf	11,6	;volatile
  4563  00EF                     l573:	
  4564                           ;main.c: 274: floatToUN8 tempVal;
  4565                           ;main.c: 276: while(1)
  4566                           
  4567                           
  4568                           ;main.c: 277: {
  4569  00EF  28EF               	goto	l573
  4570  00F0                     __end_of_main:	
  4571                           ;main.c: 331: }
  4572                           ;main.c: 332: return;
  4573                           
  4574                           
  4575                           	psect	text1
  4576  0181                     __ptext1:	
  4577 ;; *************** function _USART_WriteString *****************
  4578 ;; Defined at:
  4579 ;;		line 170 in file "main.c"
  4580 ;; Parameters:    Size  Location     Type
  4581 ;;  _data           2    2[COMMON] PTR unsigned char 
  4582 ;;		 -> STR_2(24), USART_WriteValue@buf(15), 
  4583 ;; Auto vars:     Size  Location     Type
  4584 ;;  limiter         2    5[COMMON] int 
  4585 ;; Return value:  Size  Location     Type
  4586 ;;                  1    wreg      void 
  4587 ;; Registers used:
  4588 ;;		wreg, fsr0l, fsr0h, status,2, status,0, pclath, cstack
  4589 ;; Tracked objects:
  4590 ;;		On entry : 0/0
  4591 ;;		On exit  : 0/0
  4592 ;;		Unchanged: 0/0
  4593 ;; Data sizes:     COMMON   BANK0   BANK1   BANK2   BANK3   BANK4   BANK5   BANK6   BANK7   BANK8   BANK9  BANK10  BANK1
      +1  BANK12
  4594 ;;      Params:         2       0       0       0       0       0       0       0       0       0       0       0       
      +0       0
  4595 ;;      Locals:         2       0       0       0       0       0       0       0       0       0       0       0       
      +0       0
  4596 ;;      Temps:          1       0       0       0       0       0       0       0       0       0       0       0       
      +0       0
  4597 ;;      Totals:         5       0       0       0       0       0       0       0       0       0       0       0       
      +0       0
  4598 ;;Total ram usage:        5 bytes
  4599 ;; Hardware stack levels used:    1
  4600 ;; Hardware stack levels required when called:    2
  4601 ;; This function calls:
  4602 ;;		_USART_Write
  4603 ;; This function is called by:
  4604 ;;		_main
  4605 ;;		_USART_WriteValue
  4606 ;; This function uses a non-reentrant model
  4607 ;;
  4608                           
  4609                           
  4610                           ;psect for function _USART_WriteString
  4611  0181                     _USART_WriteString:	
  4612                           
  4613                           ;main.c: 172: int limiter = 0;
  4614                           
  4615                           ;incstack = 0
  4616                           ; Regs used in _USART_WriteString: [wreg-fsr0h+status,2+status,0+pclath+cstack]
  4617  0181  01F5               	clrf	USART_WriteString@limiter
  4618  0182  01F6               	clrf	USART_WriteString@limiter+1
  4619  0183                     l1605:	
  4620                           ;main.c: 173: while(*(_data + limiter) != 0 && limiter < 100)
  4621                           
  4622  0183  0872               	movf	USART_WriteString@_data,w
  4623  0184  0775               	addwf	USART_WriteString@limiter,w
  4624  0185  0084               	movwf	4
  4625  0186  0873               	movf	USART_WriteString@_data+1,w
  4626  0187  3D76               	addwfc	USART_WriteString@limiter+1,w
  4627  0188  0085               	movwf	5
  4628  0189  0012               	moviw fsr0++
  4629  018A  1903               	btfsc	3,2
  4630  018B  0008               	return
  4631  018C  0876               	movf	USART_WriteString@limiter+1,w
  4632  018D  3A80               	xorlw	128
  4633  018E  00F4               	movwf	??_USART_WriteString
  4634  018F  3080               	movlw	128
  4635  0190  0274               	subwf	??_USART_WriteString,w
  4636  0191  1D03               	skipz
  4637  0192  2995               	goto	u215
  4638  0193  3064               	movlw	100
  4639  0194  0275               	subwf	USART_WriteString@limiter,w
  4640  0195                     u215:	
  4641  0195  1803               	btfsc	3,0
  4642  0196  0008               	return
  4643                           
  4644                           ;main.c: 174: {
  4645                           ;main.c: 175: USART_Write(*(_data + limiter));
  4646  0197  0872               	movf	USART_WriteString@_data,w
  4647  0198  0775               	addwf	USART_WriteString@limiter,w
  4648  0199  0084               	movwf	4
  4649  019A  0873               	movf	USART_WriteString@_data+1,w
  4650  019B  3D76               	addwfc	USART_WriteString@limiter+1,w
  4651  019C  0085               	movwf	5
  4652  019D  0800               	movf	0,w	;code access
  4653  019E  3181  21FC  3181   	fcall	_USART_Write
  4654                           
  4655                           ;main.c: 176: limiter++;
  4656  01A1  3001               	movlw	1
  4657  01A2  07F5               	addwf	USART_WriteString@limiter,f
  4658  01A3  3000               	movlw	0
  4659  01A4  3DF6               	addwfc	USART_WriteString@limiter+1,f
  4660  01A5  2983               	goto	l1605
  4661  01A6                     __end_of_USART_WriteString:	
  4662                           
  4663                           	psect	text2
  4664  01FC                     __ptext2:	
  4665 ;; *************** function _USART_Write *****************
  4666 ;; Defined at:
  4667 ;;		line 164 in file "main.c"
  4668 ;; Parameters:    Size  Location     Type
  4669 ;;  txData          1    wreg     unsigned char 
  4670 ;; Auto vars:     Size  Location     Type
  4671 ;;  txData          1    1[COMMON] unsigned char 
  4672 ;; Return value:  Size  Location     Type
  4673 ;;                  1    wreg      void 
  4674 ;; Registers used:
  4675 ;;		wreg
  4676 ;; Tracked objects:
  4677 ;;		On entry : 0/0
  4678 ;;		On exit  : 0/0
  4679 ;;		Unchanged: 0/0
  4680 ;; Data sizes:     COMMON   BANK0   BANK1   BANK2   BANK3   BANK4   BANK5   BANK6   BANK7   BANK8   BANK9  BANK10  BANK1
      +1  BANK12
  4681 ;;      Params:         0       0       0       0       0       0       0       0       0       0       0       0       
      +0       0
  4682 ;;      Locals:         1       0       0       0       0       0       0       0       0       0       0       0       
      +0       0
  4683 ;;      Temps:          0       0       0       0       0       0       0       0       0       0       0       0       
      +0       0
  4684 ;;      Totals:         1       0       0       0       0       0       0       0       0       0       0       0       
      +0       0
  4685 ;;Total ram usage:        1 bytes
  4686 ;; Hardware stack levels used:    1
  4687 ;; Hardware stack levels required when called:    1
  4688 ;; This function calls:
  4689 ;;		Nothing
  4690 ;; This function is called by:
  4691 ;;		_USART_WriteString
  4692 ;;		_main
  4693 ;; This function uses a non-reentrant model
  4694 ;;
  4695                           
  4696                           
  4697                           ;psect for function _USART_Write
  4698  01FC                     _USART_Write:	
  4699                           
  4700                           ;incstack = 0
  4701                           ; Regs used in _USART_Write: [wreg]
  4702                           ;USART_Write@txData stored from wreg
  4703  01FC  00F1               	movwf	USART_Write@txData
  4704  01FD                     l554:	
  4705                           ;main.c: 166: while(!TRMT);
  4706                           
  4707  01FD  0023               	movlb	3	; select bank3
  4708  01FE  1C9E               	btfss	30,1	;volatile
  4709  01FF  29FD               	goto	l554
  4710                           
  4711                           ;main.c: 167: TX1REG = txData;
  4712  0200  0871               	movf	USART_Write@txData,w
  4713  0201  009A               	movwf	26	;volatile
  4714  0202  0008               	return
  4715  0203                     __end_of_USART_Write:	
  4716                           
  4717                           	psect	text3
  4718  01CB                     __ptext3:	
  4719 ;; *************** function _USART_Initialize *****************
  4720 ;; Defined at:
  4721 ;;		line 143 in file "main.c"
  4722 ;; Parameters:    Size  Location     Type
  4723 ;;		None
  4724 ;; Auto vars:     Size  Location     Type
  4725 ;;		None
  4726 ;; Return value:  Size  Location     Type
  4727 ;;                  1    wreg      void 
  4728 ;; Registers used:
  4729 ;;		wreg
  4730 ;; Tracked objects:
  4731 ;;		On entry : 0/0
  4732 ;;		On exit  : 0/0
  4733 ;;		Unchanged: 0/0
  4734 ;; Data sizes:     COMMON   BANK0   BANK1   BANK2   BANK3   BANK4   BANK5   BANK6   BANK7   BANK8   BANK9  BANK10  BANK1
      +1  BANK12
  4735 ;;      Params:         0       0       0       0       0       0       0       0       0       0       0       0       
      +0       0
  4736 ;;      Locals:         0       0       0       0       0       0       0       0       0       0       0       0       
      +0       0
  4737 ;;      Temps:          0       0       0       0       0       0       0       0       0       0       0       0       
      +0       0
  4738 ;;      Totals:         0       0       0       0       0       0       0       0       0       0       0       0       
      +0       0
  4739 ;;Total ram usage:        0 bytes
  4740 ;; Hardware stack levels used:    1
  4741 ;; Hardware stack levels required when called:    1
  4742 ;; This function calls:
  4743 ;;		Nothing
  4744 ;; This function is called by:
  4745 ;;		_main
  4746 ;; This function uses a non-reentrant model
  4747 ;;
  4748                           
  4749                           
  4750                           ;psect for function _USART_Initialize
  4751  01CB                     _USART_Initialize:	
  4752                           
  4753                           ;main.c: 148: BAUD1CON = 0x08;
  4754                           
  4755                           ;incstack = 0
  4756                           ; Regs used in _USART_Initialize: [wreg]
  4757  01CB  3008               	movlw	8
  4758  01CC  0023               	movlb	3	; select bank3
  4759  01CD  009F               	movwf	31	;volatile
  4760                           
  4761                           ;main.c: 151: RC1STA = 0x80;
  4762  01CE  3080               	movlw	128
  4763  01CF  009D               	movwf	29	;volatile
  4764                           
  4765                           ;main.c: 154: TX1STA = 0x24;
  4766  01D0  3024               	movlw	36
  4767  01D1  009E               	movwf	30	;volatile
  4768                           
  4769                           ;main.c: 157: SP1BRGL = 0x40;
  4770  01D2  3040               	movlw	64
  4771  01D3  009B               	movwf	27	;volatile
  4772                           
  4773                           ;main.c: 160: SP1BRGH = 0x03;
  4774  01D4  3003               	movlw	3
  4775  01D5  009C               	movwf	28	;volatile
  4776  01D6  0008               	return
  4777  01D7                     __end_of_USART_Initialize:	
  4778                           
  4779                           	psect	text4
  4780  01E1                     __ptext4:	
  4781 ;; *************** function _TMR2_Initialize *****************
  4782 ;; Defined at:
  4783 ;;		line 57 in file "mcc_generated_files/tmr2.c"
  4784 ;; Parameters:    Size  Location     Type
  4785 ;;		None
  4786 ;; Auto vars:     Size  Location     Type
  4787 ;;		None
  4788 ;; Return value:  Size  Location     Type
  4789 ;;                  1    wreg      void 
  4790 ;; Registers used:
  4791 ;;		wreg, status,2, status,0, pclath, cstack
  4792 ;; Tracked objects:
  4793 ;;		On entry : 0/0
  4794 ;;		On exit  : 0/0
  4795 ;;		Unchanged: 0/0
  4796 ;; Data sizes:     COMMON   BANK0   BANK1   BANK2   BANK3   BANK4   BANK5   BANK6   BANK7   BANK8   BANK9  BANK10  BANK1
      +1  BANK12
  4797 ;;      Params:         0       0       0       0       0       0       0       0       0       0       0       0       
      +0       0
  4798 ;;      Locals:         0       0       0       0       0       0       0       0       0       0       0       0       
      +0       0
  4799 ;;      Temps:          0       0       0       0       0       0       0       0       0       0       0       0       
      +0       0
  4800 ;;      Totals:         0       0       0       0       0       0       0       0       0       0       0       0       
      +0       0
  4801 ;;Total ram usage:        0 bytes
  4802 ;; Hardware stack levels used:    1
  4803 ;; Hardware stack levels required when called:    2
  4804 ;; This function calls:
  4805 ;;		_TMR2_StartTimer
  4806 ;; This function is called by:
  4807 ;;		_main
  4808 ;;		_SYSTEM_Initialize
  4809 ;; This function uses a non-reentrant model
  4810 ;;
  4811                           
  4812                           
  4813                           ;psect for function _TMR2_Initialize
  4814  01E1                     _TMR2_Initialize:	
  4815                           
  4816                           ;tmr2.c: 62: T2CON = 0x00;
  4817                           
  4818                           ;incstack = 0
  4819                           ; Regs used in _TMR2_Initialize: [wreg+status,2+status,0+pclath+cstack]
  4820  01E1  0020               	movlb	0	; select bank0
  4821  01E2  019C               	clrf	28	;volatile
  4822                           
  4823                           ;tmr2.c: 65: PR2 = 0xFF;
  4824  01E3  30FF               	movlw	255
  4825  01E4  009B               	movwf	27	;volatile
  4826                           
  4827                           ;tmr2.c: 68: TMR2 = 0x00;
  4828  01E5  019A               	clrf	26	;volatile
  4829                           
  4830                           ;tmr2.c: 71: PIR1bits.TMR2IF = 0;
  4831  01E6  1091               	bcf	17,1	;volatile
  4832                           
  4833                           ;tmr2.c: 74: TMR2_StartTimer();
  4834  01E7  3182  2219         	fcall	_TMR2_StartTimer
  4835  01E9  0008               	return
  4836  01EA                     __end_of_TMR2_Initialize:	
  4837                           
  4838                           	psect	text5
  4839  0219                     __ptext5:	
  4840 ;; *************** function _TMR2_StartTimer *****************
  4841 ;; Defined at:
  4842 ;;		line 77 in file "mcc_generated_files/tmr2.c"
  4843 ;; Parameters:    Size  Location     Type
  4844 ;;		None
  4845 ;; Auto vars:     Size  Location     Type
  4846 ;;		None
  4847 ;; Return value:  Size  Location     Type
  4848 ;;                  1    wreg      void 
  4849 ;; Registers used:
  4850 ;;		None
  4851 ;; Tracked objects:
  4852 ;;		On entry : 0/0
  4853 ;;		On exit  : 0/0
  4854 ;;		Unchanged: 0/0
  4855 ;; Data sizes:     COMMON   BANK0   BANK1   BANK2   BANK3   BANK4   BANK5   BANK6   BANK7   BANK8   BANK9  BANK10  BANK1
      +1  BANK12
  4856 ;;      Params:         0       0       0       0       0       0       0       0       0       0       0       0       
      +0       0
  4857 ;;      Locals:         0       0       0       0       0       0       0       0       0       0       0       0       
      +0       0
  4858 ;;      Temps:          0       0       0       0       0       0       0       0       0       0       0       0       
      +0       0
  4859 ;;      Totals:         0       0       0       0       0       0       0       0       0       0       0       0       
      +0       0
  4860 ;;Total ram usage:        0 bytes
  4861 ;; Hardware stack levels used:    1
  4862 ;; Hardware stack levels required when called:    1
  4863 ;; This function calls:
  4864 ;;		Nothing
  4865 ;; This function is called by:
  4866 ;;		_TMR2_Initialize
  4867 ;; This function uses a non-reentrant model
  4868 ;;
  4869                           
  4870                           
  4871                           ;psect for function _TMR2_StartTimer
  4872  0219                     _TMR2_StartTimer:	
  4873                           
  4874                           ;tmr2.c: 80: T2CONbits.TMR2ON = 1;
  4875                           
  4876                           ;incstack = 0
  4877                           ; Regs used in _TMR2_StartTimer: []
  4878  0219  0020               	movlb	0	; select bank0
  4879  021A  151C               	bsf	28,2	;volatile
  4880  021B  0008               	return
  4881  021C                     __end_of_TMR2_StartTimer:	
  4882                           
  4883                           	psect	text6
  4884  01D7                     __ptext6:	
  4885 ;; *************** function _PWM2_Initialize *****************
  4886 ;; Defined at:
  4887 ;;		line 63 in file "mcc_generated_files/pwm2.c"
  4888 ;; Parameters:    Size  Location     Type
  4889 ;;		None
  4890 ;; Auto vars:     Size  Location     Type
  4891 ;;		None
  4892 ;; Return value:  Size  Location     Type
  4893 ;;                  1    wreg      void 
  4894 ;; Registers used:
  4895 ;;		wreg, status,2, status,0
  4896 ;; Tracked objects:
  4897 ;;		On entry : 0/0
  4898 ;;		On exit  : 0/0
  4899 ;;		Unchanged: 0/0
  4900 ;; Data sizes:     COMMON   BANK0   BANK1   BANK2   BANK3   BANK4   BANK5   BANK6   BANK7   BANK8   BANK9  BANK10  BANK1
      +1  BANK12
  4901 ;;      Params:         0       0       0       0       0       0       0       0       0       0       0       0       
      +0       0
  4902 ;;      Locals:         0       0       0       0       0       0       0       0       0       0       0       0       
      +0       0
  4903 ;;      Temps:          0       0       0       0       0       0       0       0       0       0       0       0       
      +0       0
  4904 ;;      Totals:         0       0       0       0       0       0       0       0       0       0       0       0       
      +0       0
  4905 ;;Total ram usage:        0 bytes
  4906 ;; Hardware stack levels used:    1
  4907 ;; Hardware stack levels required when called:    1
  4908 ;; This function calls:
  4909 ;;		Nothing
  4910 ;; This function is called by:
  4911 ;;		_main
  4912 ;;		_SYSTEM_Initialize
  4913 ;; This function uses a non-reentrant model
  4914 ;;
  4915                           
  4916                           
  4917                           ;psect for function _PWM2_Initialize
  4918  01D7                     _PWM2_Initialize:	
  4919                           
  4920                           ;pwm2.c: 68: CCP2CON = 0x1C;
  4921                           
  4922                           ;incstack = 0
  4923                           ; Regs used in _PWM2_Initialize: [wreg+status,2+status,0]
  4924  01D7  301C               	movlw	28
  4925  01D8  0025               	movlb	5	; select bank5
  4926  01D9  009A               	movwf	26	;volatile
  4927                           
  4928                           ;pwm2.c: 71: CCPR2L = 0x66;
  4929  01DA  3066               	movlw	102
  4930  01DB  0098               	movwf	24	;volatile
  4931                           
  4932                           ;pwm2.c: 74: CCPR2H = 0x7F;
  4933  01DC  307F               	movlw	127
  4934  01DD  0099               	movwf	25	;volatile
  4935                           
  4936                           ;pwm2.c: 77: CCPTMRSbits.C2TSEL = 0x0;
  4937  01DE  30F3               	movlw	-13
  4938  01DF  059E               	andwf	30,f	;volatile
  4939  01E0  0008               	return
  4940  01E1                     __end_of_PWM2_Initialize:	
  4941                           
  4942                           	psect	text7
  4943  01EA                     __ptext7:	
  4944 ;; *************** function _PWM1_Initialize *****************
  4945 ;; Defined at:
  4946 ;;		line 63 in file "mcc_generated_files/pwm1.c"
  4947 ;; Parameters:    Size  Location     Type
  4948 ;;		None
  4949 ;; Auto vars:     Size  Location     Type
  4950 ;;		None
  4951 ;; Return value:  Size  Location     Type
  4952 ;;                  1    wreg      void 
  4953 ;; Registers used:
  4954 ;;		wreg, status,2, status,0
  4955 ;; Tracked objects:
  4956 ;;		On entry : 0/0
  4957 ;;		On exit  : 0/0
  4958 ;;		Unchanged: 0/0
  4959 ;; Data sizes:     COMMON   BANK0   BANK1   BANK2   BANK3   BANK4   BANK5   BANK6   BANK7   BANK8   BANK9  BANK10  BANK1
      +1  BANK12
  4960 ;;      Params:         0       0       0       0       0       0       0       0       0       0       0       0       
      +0       0
  4961 ;;      Locals:         0       0       0       0       0       0       0       0       0       0       0       0       
      +0       0
  4962 ;;      Temps:          0       0       0       0       0       0       0       0       0       0       0       0       
      +0       0
  4963 ;;      Totals:         0       0       0       0       0       0       0       0       0       0       0       0       
      +0       0
  4964 ;;Total ram usage:        0 bytes
  4965 ;; Hardware stack levels used:    1
  4966 ;; Hardware stack levels required when called:    1
  4967 ;; This function calls:
  4968 ;;		Nothing
  4969 ;; This function is called by:
  4970 ;;		_main
  4971 ;;		_SYSTEM_Initialize
  4972 ;; This function uses a non-reentrant model
  4973 ;;
  4974                           
  4975                           
  4976                           ;psect for function _PWM1_Initialize
  4977  01EA                     _PWM1_Initialize:	
  4978                           
  4979                           ;pwm1.c: 68: CCP1CON = 0x1C;
  4980                           
  4981                           ;incstack = 0
  4982                           ; Regs used in _PWM1_Initialize: [wreg+status,2+status,0]
  4983  01EA  301C               	movlw	28
  4984  01EB  0025               	movlb	5	; select bank5
  4985  01EC  0093               	movwf	19	;volatile
  4986                           
  4987                           ;pwm1.c: 71: CCPR1L = 0x02;
  4988  01ED  3002               	movlw	2
  4989  01EE  0091               	movwf	17	;volatile
  4990                           
  4991                           ;pwm1.c: 74: CCPR1H = 0x00;
  4992  01EF  0192               	clrf	18	;volatile
  4993                           
  4994                           ;pwm1.c: 77: CCPTMRSbits.C1TSEL = 0x0;
  4995  01F0  30FC               	movlw	-4
  4996  01F1  059E               	andwf	30,f	;volatile
  4997  01F2  0008               	return
  4998  01F3                     __end_of_PWM1_Initialize:	
  4999                           
  5000                           	psect	text8
  5001  0209                     __ptext8:	
  5002 ;; *************** function _OSC_Init *****************
  5003 ;; Defined at:
  5004 ;;		line 70 in file "main.c"
  5005 ;; Parameters:    Size  Location     Type
  5006 ;;		None
  5007 ;; Auto vars:     Size  Location     Type
  5008 ;;		None
  5009 ;; Return value:  Size  Location     Type
  5010 ;;                  1    wreg      void 
  5011 ;; Registers used:
  5012 ;;		wreg, status,2
  5013 ;; Tracked objects:
  5014 ;;		On entry : 0/0
  5015 ;;		On exit  : 0/0
  5016 ;;		Unchanged: 0/0
  5017 ;; Data sizes:     COMMON   BANK0   BANK1   BANK2   BANK3   BANK4   BANK5   BANK6   BANK7   BANK8   BANK9  BANK10  BANK1
      +1  BANK12
  5018 ;;      Params:         0       0       0       0       0       0       0       0       0       0       0       0       
      +0       0
  5019 ;;      Locals:         0       0       0       0       0       0       0       0       0       0       0       0       
      +0       0
  5020 ;;      Temps:          0       0       0       0       0       0       0       0       0       0       0       0       
      +0       0
  5021 ;;      Totals:         0       0       0       0       0       0       0       0       0       0       0       0       
      +0       0
  5022 ;;Total ram usage:        0 bytes
  5023 ;; Hardware stack levels used:    1
  5024 ;; Hardware stack levels required when called:    1
  5025 ;; This function calls:
  5026 ;;		Nothing
  5027 ;; This function is called by:
  5028 ;;		_main
  5029 ;; This function uses a non-reentrant model
  5030 ;;
  5031                           
  5032                           
  5033                           ;psect for function _OSC_Init
  5034  0209                     _OSC_Init:	
  5035                           
  5036                           ;main.c: 73: OSCCON = 0xf0;
  5037                           
  5038                           ;incstack = 0
  5039                           ; Regs used in _OSC_Init: [wreg+status,2]
  5040  0209  30F0               	movlw	240
  5041  020A  0021               	movlb	1	; select bank1
  5042  020B  0099               	movwf	25	;volatile
  5043                           
  5044                           ;main.c: 74: OSCSTAT = 0x00;
  5045  020C  019A               	clrf	26	;volatile
  5046                           
  5047                           ;main.c: 75: OSCTUNE = 0x00;
  5048  020D  0198               	clrf	24	;volatile
  5049  020E  0008               	return
  5050  020F                     __end_of_OSC_Init:	
  5051                           
  5052                           	psect	text9
  5053  0215                     __ptext9:	
  5054 ;; *************** function _FVR_Initialize *****************
  5055 ;; Defined at:
  5056 ;;		line 57 in file "mcc_generated_files/fvr.c"
  5057 ;; Parameters:    Size  Location     Type
  5058 ;;		None
  5059 ;; Auto vars:     Size  Location     Type
  5060 ;;		None
  5061 ;; Return value:  Size  Location     Type
  5062 ;;                  1    wreg      void 
  5063 ;; Registers used:
  5064 ;;		wreg
  5065 ;; Tracked objects:
  5066 ;;		On entry : 0/0
  5067 ;;		On exit  : 0/0
  5068 ;;		Unchanged: 0/0
  5069 ;; Data sizes:     COMMON   BANK0   BANK1   BANK2   BANK3   BANK4   BANK5   BANK6   BANK7   BANK8   BANK9  BANK10  BANK1
      +1  BANK12
  5070 ;;      Params:         0       0       0       0       0       0       0       0       0       0       0       0       
      +0       0
  5071 ;;      Locals:         0       0       0       0       0       0       0       0       0       0       0       0       
      +0       0
  5072 ;;      Temps:          0       0       0       0       0       0       0       0       0       0       0       0       
      +0       0
  5073 ;;      Totals:         0       0       0       0       0       0       0       0       0       0       0       0       
      +0       0
  5074 ;;Total ram usage:        0 bytes
  5075 ;; Hardware stack levels used:    1
  5076 ;; Hardware stack levels required when called:    1
  5077 ;; This function calls:
  5078 ;;		Nothing
  5079 ;; This function is called by:
  5080 ;;		_main
  5081 ;;		_SYSTEM_Initialize
  5082 ;; This function uses a non-reentrant model
  5083 ;;
  5084                           
  5085                           
  5086                           ;psect for function _FVR_Initialize
  5087  0215                     _FVR_Initialize:	
  5088                           
  5089                           ;fvr.c: 60: FVRCON = 0x84;
  5090                           
  5091                           ;incstack = 0
  5092                           ; Regs used in _FVR_Initialize: [wreg]
  5093  0215  3084               	movlw	132
  5094  0216  0022               	movlb	2	; select bank2
  5095  0217  0097               	movwf	23	;volatile
  5096  0218  0008               	return
  5097  0219                     __end_of_FVR_Initialize:	
  5098                           
  5099                           	psect	text10
  5100  020F                     __ptext10:	
  5101 ;; *************** function _DAC_Initialize *****************
  5102 ;; Defined at:
  5103 ;;		line 57 in file "mcc_generated_files/dac.c"
  5104 ;; Parameters:    Size  Location     Type
  5105 ;;		None
  5106 ;; Auto vars:     Size  Location     Type
  5107 ;;		None
  5108 ;; Return value:  Size  Location     Type
  5109 ;;                  1    wreg      void 
  5110 ;; Registers used:
  5111 ;;		wreg
  5112 ;; Tracked objects:
  5113 ;;		On entry : 0/0
  5114 ;;		On exit  : 0/0
  5115 ;;		Unchanged: 0/0
  5116 ;; Data sizes:     COMMON   BANK0   BANK1   BANK2   BANK3   BANK4   BANK5   BANK6   BANK7   BANK8   BANK9  BANK10  BANK1
      +1  BANK12
  5117 ;;      Params:         0       0       0       0       0       0       0       0       0       0       0       0       
      +0       0
  5118 ;;      Locals:         0       0       0       0       0       0       0       0       0       0       0       0       
      +0       0
  5119 ;;      Temps:          0       0       0       0       0       0       0       0       0       0       0       0       
      +0       0
  5120 ;;      Totals:         0       0       0       0       0       0       0       0       0       0       0       0       
      +0       0
  5121 ;;Total ram usage:        0 bytes
  5122 ;; Hardware stack levels used:    1
  5123 ;; Hardware stack levels required when called:    1
  5124 ;; This function calls:
  5125 ;;		Nothing
  5126 ;; This function is called by:
  5127 ;;		_main
  5128 ;;		_SYSTEM_Initialize
  5129 ;; This function uses a non-reentrant model
  5130 ;;
  5131                           
  5132                           
  5133                           ;psect for function _DAC_Initialize
  5134  020F                     _DAC_Initialize:	
  5135                           
  5136                           ;dac.c: 60: DAC1CON0 = 0x98;
  5137                           
  5138                           ;incstack = 0
  5139                           ; Regs used in _DAC_Initialize: [wreg]
  5140  020F  3098               	movlw	152
  5141  0210  0022               	movlb	2	; select bank2
  5142  0211  0098               	movwf	24	;volatile
  5143                           
  5144                           ;dac.c: 62: DAC1CON1 = 0x0D;
  5145  0212  300D               	movlw	13
  5146  0213  0099               	movwf	25	;volatile
  5147  0214  0008               	return
  5148  0215                     __end_of_DAC_Initialize:	
  5149                           
  5150                           	psect	text11
  5151  01A6                     __ptext11:	
  5152 ;; *************** function _COG1_Initialize *****************
  5153 ;; Defined at:
  5154 ;;		line 57 in file "mcc_generated_files/cog1.c"
  5155 ;; Parameters:    Size  Location     Type
  5156 ;;		None
  5157 ;; Auto vars:     Size  Location     Type
  5158 ;;		None
  5159 ;; Return value:  Size  Location     Type
  5160 ;;                  1    wreg      void 
  5161 ;; Registers used:
  5162 ;;		wreg, status,2
  5163 ;; Tracked objects:
  5164 ;;		On entry : 0/0
  5165 ;;		On exit  : 0/0
  5166 ;;		Unchanged: 0/0
  5167 ;; Data sizes:     COMMON   BANK0   BANK1   BANK2   BANK3   BANK4   BANK5   BANK6   BANK7   BANK8   BANK9  BANK10  BANK1
      +1  BANK12
  5168 ;;      Params:         0       0       0       0       0       0       0       0       0       0       0       0       
      +0       0
  5169 ;;      Locals:         0       0       0       0       0       0       0       0       0       0       0       0       
      +0       0
  5170 ;;      Temps:          0       0       0       0       0       0       0       0       0       0       0       0       
      +0       0
  5171 ;;      Totals:         0       0       0       0       0       0       0       0       0       0       0       0       
      +0       0
  5172 ;;Total ram usage:        0 bytes
  5173 ;; Hardware stack levels used:    1
  5174 ;; Hardware stack levels required when called:    1
  5175 ;; This function calls:
  5176 ;;		Nothing
  5177 ;; This function is called by:
  5178 ;;		_main
  5179 ;;		_SYSTEM_Initialize
  5180 ;; This function uses a non-reentrant model
  5181 ;;
  5182                           
  5183                           
  5184                           ;psect for function _COG1_Initialize
  5185  01A6                     _COG1_Initialize:	
  5186                           
  5187                           ;cog1.c: 60: COG1CON0 = 0x00;
  5188                           
  5189                           ;incstack = 0
  5190                           ; Regs used in _COG1_Initialize: [wreg+status,2]
  5191  01A6  002D               	movlb	13	; select bank13
  5192  01A7  0197               	clrf	23	;volatile
  5193                           
  5194                           ;cog1.c: 65: COG1CON1 = 0x00;
  5195  01A8  0198               	clrf	24	;volatile
  5196                           
  5197                           ;cog1.c: 68: COG1RIS = 0x10;
  5198  01A9  3010               	movlw	16
  5199  01AA  0099               	movwf	25	;volatile
  5200                           
  5201                           ;cog1.c: 71: COG1RSIM = 0x00;
  5202  01AB  019A               	clrf	26	;volatile
  5203                           
  5204                           ;cog1.c: 74: COG1FIS = 0x22;
  5205  01AC  3022               	movlw	34
  5206  01AD  009B               	movwf	27	;volatile
  5207                           
  5208                           ;cog1.c: 77: COG1FSIM = 0x22;
  5209  01AE  3022               	movlw	34
  5210  01AF  009C               	movwf	28	;volatile
  5211                           
  5212                           ;cog1.c: 80: COG1ASD0 = 0x00;
  5213  01B0  019D               	clrf	29	;volatile
  5214                           
  5215                           ;cog1.c: 83: COG1ASD1 = 0x00;
  5216  01B1  019E               	clrf	30	;volatile
  5217                           
  5218                           ;cog1.c: 86: COG1STR = 0x01;
  5219  01B2  3001               	movlw	1
  5220  01B3  009F               	movwf	31	;volatile
  5221                           
  5222                           ;cog1.c: 89: COG1DBR = 0x00;
  5223  01B4  0195               	clrf	21	;volatile
  5224                           
  5225                           ;cog1.c: 92: COG1DBF = 0x00;
  5226  01B5  0196               	clrf	22	;volatile
  5227                           
  5228                           ;cog1.c: 95: COG1BLKR = 0x02;
  5229  01B6  3002               	movlw	2
  5230  01B7  0093               	movwf	19	;volatile
  5231                           
  5232                           ;cog1.c: 98: COG1BLKF = 0x00;
  5233  01B8  0194               	clrf	20	;volatile
  5234                           
  5235                           ;cog1.c: 101: COG1PHR = 0x00;
  5236  01B9  0191               	clrf	17	;volatile
  5237                           
  5238                           ;cog1.c: 104: COG1PHF = 0x00;
  5239  01BA  0192               	clrf	18	;volatile
  5240                           
  5241                           ;cog1.c: 107: COG1CON0 = 0x80;
  5242  01BB  3080               	movlw	128
  5243  01BC  0097               	movwf	23	;volatile
  5244  01BD  0008               	return
  5245  01BE                     __end_of_COG1_Initialize:	
  5246                           
  5247                           	psect	text12
  5248  01BE                     __ptext12:	
  5249 ;; *************** function _CMP1_Initialize *****************
  5250 ;; Defined at:
  5251 ;;		line 57 in file "mcc_generated_files/cmp1.c"
  5252 ;; Parameters:    Size  Location     Type
  5253 ;;		None
  5254 ;; Auto vars:     Size  Location     Type
  5255 ;;		None
  5256 ;; Return value:  Size  Location     Type
  5257 ;;                  1    wreg      void 
  5258 ;; Registers used:
  5259 ;;		wreg
  5260 ;; Tracked objects:
  5261 ;;		On entry : 0/0
  5262 ;;		On exit  : 0/0
  5263 ;;		Unchanged: 0/0
  5264 ;; Data sizes:     COMMON   BANK0   BANK1   BANK2   BANK3   BANK4   BANK5   BANK6   BANK7   BANK8   BANK9  BANK10  BANK1
      +1  BANK12
  5265 ;;      Params:         0       0       0       0       0       0       0       0       0       0       0       0       
      +0       0
  5266 ;;      Locals:         0       0       0       0       0       0       0       0       0       0       0       0       
      +0       0
  5267 ;;      Temps:          0       0       0       0       0       0       0       0       0       0       0       0       
      +0       0
  5268 ;;      Totals:         0       0       0       0       0       0       0       0       0       0       0       0       
      +0       0
  5269 ;;Total ram usage:        0 bytes
  5270 ;; Hardware stack levels used:    1
  5271 ;; Hardware stack levels required when called:    1
  5272 ;; This function calls:
  5273 ;;		Nothing
  5274 ;; This function is called by:
  5275 ;;		_main
  5276 ;;		_SYSTEM_Initialize
  5277 ;; This function uses a non-reentrant model
  5278 ;;
  5279                           
  5280                           
  5281                           ;psect for function _CMP1_Initialize
  5282  01BE                     _CMP1_Initialize:	
  5283                           
  5284                           ;cmp1.c: 62: CM1CON0 = 0x84;
  5285                           
  5286                           ;incstack = 0
  5287                           ; Regs used in _CMP1_Initialize: [wreg]
  5288  01BE  3084               	movlw	132
  5289  01BF  0022               	movlb	2	; select bank2
  5290  01C0  0091               	movwf	17	;volatile
  5291                           
  5292                           ;cmp1.c: 65: CM1CON1 = 0x03;
  5293  01C1  3003               	movlw	3
  5294  01C2  0092               	movwf	18	;volatile
  5295                           
  5296                           ;cmp1.c: 67: TRISA5 = 0;
  5297  01C3  0021               	movlb	1	; select bank1
  5298  01C4  128C               	bcf	12,5	;volatile
  5299                           
  5300                           ;cmp1.c: 68: ANSELA |= 0x20;
  5301  01C5  0023               	movlb	3	; select bank3
  5302  01C6  168C               	bsf	12,5	;volatile
  5303                           
  5304                           ;cmp1.c: 69: RA5PPS = 0x16;
  5305  01C7  3016               	movlw	22
  5306  01C8  003D               	movlb	29	; select bank29
  5307  01C9  0095               	movwf	21	;volatile
  5308  01CA  0008               	return
  5309  01CB                     __end_of_CMP1_Initialize:	
  5310                           
  5311                           	psect	text13
  5312  01F3                     __ptext13:	
  5313 ;; *************** function _ADC_Initialize *****************
  5314 ;; Defined at:
  5315 ;;		line 64 in file "mcc_generated_files/adc.c"
  5316 ;; Parameters:    Size  Location     Type
  5317 ;;		None
  5318 ;; Auto vars:     Size  Location     Type
  5319 ;;		None
  5320 ;; Return value:  Size  Location     Type
  5321 ;;                  1    wreg      void 
  5322 ;; Registers used:
  5323 ;;		wreg, status,2
  5324 ;; Tracked objects:
  5325 ;;		On entry : 0/0
  5326 ;;		On exit  : 0/0
  5327 ;;		Unchanged: 0/0
  5328 ;; Data sizes:     COMMON   BANK0   BANK1   BANK2   BANK3   BANK4   BANK5   BANK6   BANK7   BANK8   BANK9  BANK10  BANK1
      +1  BANK12
  5329 ;;      Params:         0       0       0       0       0       0       0       0       0       0       0       0       
      +0       0
  5330 ;;      Locals:         0       0       0       0       0       0       0       0       0       0       0       0       
      +0       0
  5331 ;;      Temps:          0       0       0       0       0       0       0       0       0       0       0       0       
      +0       0
  5332 ;;      Totals:         0       0       0       0       0       0       0       0       0       0       0       0       
      +0       0
  5333 ;;Total ram usage:        0 bytes
  5334 ;; Hardware stack levels used:    1
  5335 ;; Hardware stack levels required when called:    1
  5336 ;; This function calls:
  5337 ;;		Nothing
  5338 ;; This function is called by:
  5339 ;;		_main
  5340 ;;		_SYSTEM_Initialize
  5341 ;; This function uses a non-reentrant model
  5342 ;;
  5343                           
  5344                           
  5345                           ;psect for function _ADC_Initialize
  5346  01F3                     _ADC_Initialize:	
  5347                           
  5348                           ;adc.c: 69: ADCON0 = 0x01;
  5349                           
  5350                           ;incstack = 0
  5351                           ; Regs used in _ADC_Initialize: [wreg+status,2]
  5352  01F3  3001               	movlw	1
  5353  01F4  0021               	movlb	1	; select bank1
  5354  01F5  009D               	movwf	29	;volatile
  5355                           
  5356                           ;adc.c: 72: ADCON1 = 0xC0;
  5357  01F6  30C0               	movlw	192
  5358  01F7  009E               	movwf	30	;volatile
  5359                           
  5360                           ;adc.c: 75: ADCON2 = 0x00;
  5361  01F8  019F               	clrf	31	;volatile
  5362                           
  5363                           ;adc.c: 78: ADRESL = 0x00;
  5364  01F9  019B               	clrf	27	;volatile
  5365                           
  5366                           ;adc.c: 81: ADRESH = 0x00;
  5367  01FA  019C               	clrf	28	;volatile
  5368  01FB  0008               	return
  5369  01FC                     __end_of_ADC_Initialize:	
  5370                           
  5371                           	psect	intentry
  5372  0004                     __pintentry:	
  5373 ;; *************** function _isr *****************
  5374 ;; Defined at:
  5375 ;;		line 336 in file "main.c"
  5376 ;; Parameters:    Size  Location     Type
  5377 ;;		None
  5378 ;; Auto vars:     Size  Location     Type
  5379 ;;		None
  5380 ;; Return value:  Size  Location     Type
  5381 ;;                  1    wreg      void 
  5382 ;; Registers used:
  5383 ;;		wreg
  5384 ;; Tracked objects:
  5385 ;;		On entry : 0/0
  5386 ;;		On exit  : 0/0
  5387 ;;		Unchanged: 0/0
  5388 ;; Data sizes:     COMMON   BANK0   BANK1   BANK2   BANK3   BANK4   BANK5   BANK6   BANK7   BANK8   BANK9  BANK10  BANK1
      +1  BANK12
  5389 ;;      Params:         0       0       0       0       0       0       0       0       0       0       0       0       
      +0       0
  5390 ;;      Locals:         0       0       0       0       0       0       0       0       0       0       0       0       
      +0       0
  5391 ;;      Temps:          1       0       0       0       0       0       0       0       0       0       0       0       
      +0       0
  5392 ;;      Totals:         1       0       0       0       0       0       0       0       0       0       0       0       
      +0       0
  5393 ;;Total ram usage:        1 bytes
  5394 ;; Hardware stack levels used:    1
  5395 ;; This function calls:
  5396 ;;		Nothing
  5397 ;; This function is called by:
  5398 ;;		Interrupt level 1
  5399 ;; This function uses a non-reentrant model
  5400 ;;
  5401                           
  5402  0004                     _isr:	
  5403                           
  5404                           ;incstack = 0
  5405  0004  147E               	bsf	126,0	;set compiler interrupt flag (level 1)
  5406                           
  5407                           ; Regs used in _isr: [wreg]
  5408  0005  3180               	pagesel	$
  5409  0006  0020               	movlb	0	; select bank0
  5410  0007  087F               	movf	127,w
  5411  0008  00F0               	movwf	??_isr
  5412                           
  5413                           ;main.c: 338: if(TMR1IE & TMR1IF)
  5414  0009  3001               	movlw	1
  5415  000A  0021               	movlb	1	; select bank1
  5416  000B  1C11               	btfss	17,0	;volatile
  5417  000C  3900               	andlw	0
  5418  000D  0020               	movlb	0	; select bank0
  5419  000E  1C11               	btfss	17,0	;volatile
  5420  000F  3900               	andlw	0
  5421  0010  1C09               	btfss	9,0
  5422  0011  281A               	goto	i1l580
  5423                           
  5424                           ;main.c: 339: {
  5425                           ;main.c: 340: TMR1H = timerValue.bytes[1];
  5426  0012  087A               	movf	_timerValue+1,w	;volatile
  5427  0013  0097               	movwf	23	;volatile
  5428                           
  5429                           ;main.c: 341: TMR1L = timerValue.bytes[0];
  5430  0014  0879               	movf	_timerValue,w	;volatile
  5431  0015  0096               	movwf	22	;volatile
  5432                           
  5433                           ;main.c: 342: TMR1IF = 0;
  5434  0016  1011               	bcf	17,0	;volatile
  5435                           
  5436                           ;main.c: 343: LATB6 ^= 1;
  5437  0017  0022               	movlb	2	; select bank2
  5438  0018  3040               	movlw	64
  5439  0019  068D               	xorwf	13,f
  5440  001A                     i1l580:	
  5441  001A  0870               	movf	??_isr,w
  5442  001B  0020               	movlb	0	; select bank0
  5443  001C  00FF               	movwf	127
  5444  001D  107E               	bcf	126,0	;clear compiler interrupt flag (level 1)
  5445  001E  0009               	retfie
  5446  001F                     __end_of_isr:	
  5447  007E                     btemp	set	126	;btemp
  5448  007E                     int$flags	set	126
  5449  007E                     wtemp	set	126
  5450  007E                     wtemp0	set	126
  5451  0080                     wtemp1	set	128
  5452  0082                     wtemp2	set	130
  5453  0084                     wtemp3	set	132
  5454  0086                     wtemp4	set	134
  5455  0088                     wtemp5	set	136
  5456  007F                     wtemp6	set	127
  5457  007E                     ttemp	set	126
  5458  007E                     ttemp0	set	126
  5459  0081                     ttemp1	set	129
  5460  0084                     ttemp2	set	132
  5461  0087                     ttemp3	set	135
  5462  007F                     ttemp4	set	127
  5463  007E                     ltemp	set	126
  5464  007E                     ltemp0	set	126
  5465  0082                     ltemp1	set	130
  5466  0086                     ltemp2	set	134
  5467  0080                     ltemp3	set	128


Data Sizes:
    Strings     27
    Constant    118
    Data        0
    BSS         38
    Persistent  42
    Stack       0

Auto Spaces:
    Space          Size  Autos    Used
    COMMON           14      7      11
    BANK0            80      3      79
    BANK1            80      0       0
    BANK2            80      0       0
    BANK3            80      0       0
    BANK4            80      0       0
    BANK5            80      0       0
    BANK6            80      0       0
    BANK7            80      0       0
    BANK8            80      0       0
    BANK9            80      0       0
    BANK10           80      0       0
    BANK11           80      0       0
    BANK12           48      0       0

Pointer List with Targets:

    USART_WriteString@_data	PTR unsigned char  size(2) Largest target is 24
		 -> STR_2(CODE[24]), USART_WriteValue@buf(BANK0[15]), 

    TMR1_InterruptHandler	PTR FTN()void  size(2) Largest target is 1
		 -> Absolute function(), TMR1_DefaultInterruptHandler(), 


Critical Paths under _main in COMMON

    _main->_USART_WriteString
    _USART_WriteString->_USART_Write

Critical Paths under _isr in COMMON

    None.

Critical Paths under _main in BANK0

    None.

Critical Paths under _isr in BANK0

    None.

Critical Paths under _main in BANK1

    None.

Critical Paths under _isr in BANK1

    None.

Critical Paths under _main in BANK2

    None.

Critical Paths under _isr in BANK2

    None.

Critical Paths under _main in BANK3

    None.

Critical Paths under _isr in BANK3

    None.

Critical Paths under _main in BANK4

    None.

Critical Paths under _isr in BANK4

    None.

Critical Paths under _main in BANK5

    None.

Critical Paths under _isr in BANK5

    None.

Critical Paths under _main in BANK6

    None.

Critical Paths under _isr in BANK6

    None.

Critical Paths under _main in BANK7

    None.

Critical Paths under _isr in BANK7

    None.

Critical Paths under _main in BANK8

    None.

Critical Paths under _isr in BANK8

    None.

Critical Paths under _main in BANK9

    None.

Critical Paths under _isr in BANK9

    None.

Critical Paths under _main in BANK10

    None.

Critical Paths under _isr in BANK10

    None.

Critical Paths under _main in BANK11

    None.

Critical Paths under _isr in BANK11

    None.

Critical Paths under _main in BANK12

    None.

Critical Paths under _isr in BANK12

    None.

Call Graph Tables:

 ---------------------------------------------------------------------------------
 (Depth) Function   	        Calls       Base Space   Used Autos Params    Refs
 ---------------------------------------------------------------------------------
 (0) _main                                                 6     6      0     284
                                              0 BANK0      3     3      0
                     _ADC_Initialize
                    _CMP1_Initialize
                    _COG1_Initialize
                     _DAC_Initialize
                     _FVR_Initialize
                           _OSC_Init
                    _PWM1_Initialize
                    _PWM2_Initialize
                    _TMR2_Initialize
                   _USART_Initialize
                        _USART_Write
                  _USART_WriteString
 ---------------------------------------------------------------------------------
 (1) _USART_WriteString                                    5     3      2     262
                                              2 COMMON     5     3      2
                        _USART_Write
 ---------------------------------------------------------------------------------
 (2) _USART_Write                                          1     1      0      22
                                              1 COMMON     1     1      0
 ---------------------------------------------------------------------------------
 (1) _USART_Initialize                                     0     0      0       0
 ---------------------------------------------------------------------------------
 (1) _TMR2_Initialize                                      0     0      0       0
                    _TMR2_StartTimer
 ---------------------------------------------------------------------------------
 (2) _TMR2_StartTimer                                      0     0      0       0
 ---------------------------------------------------------------------------------
 (1) _PWM2_Initialize                                      0     0      0       0
 ---------------------------------------------------------------------------------
 (1) _PWM1_Initialize                                      0     0      0       0
 ---------------------------------------------------------------------------------
 (1) _OSC_Init                                             0     0      0       0
 ---------------------------------------------------------------------------------
 (1) _FVR_Initialize                                       0     0      0       0
 ---------------------------------------------------------------------------------
 (1) _DAC_Initialize                                       0     0      0       0
 ---------------------------------------------------------------------------------
 (1) _COG1_Initialize                                      0     0      0       0
 ---------------------------------------------------------------------------------
 (1) _CMP1_Initialize                                      0     0      0       0
 ---------------------------------------------------------------------------------
 (1) _ADC_Initialize                                       0     0      0       0
 ---------------------------------------------------------------------------------
 Estimated maximum stack depth 2
 ---------------------------------------------------------------------------------
 (Depth) Function   	        Calls       Base Space   Used Autos Params    Refs
 ---------------------------------------------------------------------------------
 (3) _isr                                                  1     1      0       0
                                              0 COMMON     1     1      0
 ---------------------------------------------------------------------------------
 Estimated maximum stack depth 3
 ---------------------------------------------------------------------------------

 Call Graph Graphs:

 _main (ROOT)
   _ADC_Initialize
   _CMP1_Initialize
   _COG1_Initialize
   _DAC_Initialize
   _FVR_Initialize
   _OSC_Init
   _PWM1_Initialize
   _PWM2_Initialize
   _TMR2_Initialize
     _TMR2_StartTimer
   _USART_Initialize
   _USART_Write
   _USART_WriteString
     _USART_Write

 _isr (ROOT)

 Address spaces:
Name               Size   Autos  Total    Cost      Usage
BIGRAM             3F0      0       0       0        0.0%
NULL                 0      0       0       0        0.0%
CODE                 0      0       0       0        0.0%
BITCOMMON            E      0       0       1        0.0%
BITSFR0              0      0       0       1        0.0%
SFR0                 0      0       0       1        0.0%
COMMON               E      7       B       2       78.6%
BITSFR1              0      0       0       2        0.0%
SFR1                 0      0       0       2        0.0%
BITSFR2              0      0       0       3        0.0%
SFR2                 0      0       0       3        0.0%
STACK                0      0       0       3        0.0%
BITBANK0            50      0       0       4        0.0%
BITSFR3              0      0       0       4        0.0%
SFR3                 0      0       0       4        0.0%
BANK0               50      3      4F       5       98.8%
BITSFR4              0      0       0       5        0.0%
SFR4                 0      0       0       5        0.0%
BITBANK1            50      0       0       6        0.0%
BITSFR5              0      0       0       6        0.0%
SFR5                 0      0       0       6        0.0%
BANK1               50      0       0       7        0.0%
BITSFR6              0      0       0       7        0.0%
SFR6                 0      0       0       7        0.0%
BITBANK2            50      0       0       8        0.0%
BITSFR7              0      0       0       8        0.0%
SFR7                 0      0       0       8        0.0%
BANK2               50      0       0       9        0.0%
BITSFR8              0      0       0       9        0.0%
SFR8                 0      0       0       9        0.0%
BITBANK3            50      0       0      10        0.0%
BITSFR9              0      0       0      10        0.0%
SFR9                 0      0       0      10        0.0%
BANK3               50      0       0      11        0.0%
BITSFR10             0      0       0      11        0.0%
SFR10                0      0       0      11        0.0%
BITBANK4            50      0       0      12        0.0%
BITSFR11             0      0       0      12        0.0%
SFR11                0      0       0      12        0.0%
BANK4               50      0       0      13        0.0%
BITSFR12             0      0       0      13        0.0%
SFR12                0      0       0      13        0.0%
BITBANK5            50      0       0      14        0.0%
BITSFR13             0      0       0      14        0.0%
SFR13                0      0       0      14        0.0%
BANK5               50      0       0      15        0.0%
BITSFR14             0      0       0      15        0.0%
SFR14                0      0       0      15        0.0%
BITBANK6            50      0       0      16        0.0%
BITSFR15             0      0       0      16        0.0%
SFR15                0      0       0      16        0.0%
BANK6               50      0       0      17        0.0%
BITSFR16             0      0       0      17        0.0%
SFR16                0      0       0      17        0.0%
BITBANK7            50      0       0      18        0.0%
BITSFR17             0      0       0      18        0.0%
SFR17                0      0       0      18        0.0%
BANK7               50      0       0      19        0.0%
BITSFR18             0      0       0      19        0.0%
SFR18                0      0       0      19        0.0%
BITSFR19             0      0       0      20        0.0%
SFR19                0      0       0      20        0.0%
ABS                  0      0      5A      20        0.0%
BITBANK8            50      0       0      21        0.0%
BITSFR20             0      0       0      21        0.0%
SFR20                0      0       0      21        0.0%
BANK8               50      0       0      22        0.0%
BITSFR21             0      0       0      22        0.0%
SFR21                0      0       0      22        0.0%
BITBANK9            50      0       0      23        0.0%
BITSFR22             0      0       0      23        0.0%
SFR22                0      0       0      23        0.0%
BANK9               50      0       0      24        0.0%
BITSFR23             0      0       0      24        0.0%
SFR23                0      0       0      24        0.0%
BITBANK10           50      0       0      25        0.0%
BITSFR24             0      0       0      25        0.0%
SFR24                0      0       0      25        0.0%
BANK10              50      0       0      26        0.0%
BITSFR25             0      0       0      26        0.0%
SFR25                0      0       0      26        0.0%
BITBANK11           50      0       0      27        0.0%
BITSFR26             0      0       0      27        0.0%
SFR26                0      0       0      27        0.0%
BANK11              50      0       0      28        0.0%
BITSFR27             0      0       0      28        0.0%
SFR27                0      0       0      28        0.0%
BITBANK12           30      0       0      29        0.0%
BITSFR28             0      0       0      29        0.0%
SFR28                0      0       0      29        0.0%
BANK12              30      0       0      30        0.0%
BITSFR29             0      0       0      30        0.0%
SFR29                0      0       0      30        0.0%
BITSFR30             0      0       0      31        0.0%
SFR30                0      0       0      31        0.0%
DATA                 0      0      5A      31        0.0%
BITSFR31             0      0       0      32        0.0%
SFR31                0      0       0      32        0.0%


Microchip Technology PIC Macro Assembler V1.38 build -256452561 
Symbol Table                                                                                   Mon Dec 19 17:15:31 2016

                 __CFG_CP$OFF 0000                            _M1 0026                            _M2 0029  
           ??_CMP1_Initialize 0071                            _a0 002F                            _a1 0032  
                          _a2 0035                            _b1 0038                            _b2 003B  
                          _Vc 005F        __end_of_FVR_Initialize 0219                            _rk 003E  
                 __CFG_LVP$ON 0000      __end_of_USART_Initialize 01D7                           l554 01FD  
                         l573 00EF                           _GIE 005F                           u215 0195  
                         _PR2 001B                           u247 00DC                           _Ver 0062  
             _timer1ReloadVal 0077                           _isr 0004    __size_of_USART_WriteString 0025  
             _TMR2_Initialize 01E1                  __CFG_BORV$LO 0000                           wreg 0009  
                __CFG_IESO$ON 0000       __end_of_COG1_Initialize 01BE                          l1605 0183  
                        ?_isr 0070                          STR_1 017E                          STR_2 0166  
     __end_of_PWM1_Initialize 01F3                          _LATA 010C                          _LATB 010D  
                        _LATC 010E                          _PEIE 005E                          _PLLR 04D6  
                        _TMR2 001A                          _TRMT 0CF1                          _WPUA 020C  
                        _WPUB 020D                          _WPUC 020E                  __CFG_WRT$OFF 0000  
               __CFG_FCMEN$ON 0000                          _Vref 002C                          _Vout 0065  
                        _rk_1 0041                          _rk_2 0044                          _main 0030  
                        _rk_3 0047                          fsr0h 0005                          fsr0l 0004  
                        indf0 0000                          btemp 007E                 __CFG_BOREN$ON 0000  
                        ltemp 007E                          start 001F                          ttemp 007E  
                        wtemp 007E      USART_WriteString@limiter 0075                         ??_isr 0070  
     __end_of_PWM2_Initialize 01E1               ?_FVR_Initialize 0070                         ?_main 0070  
               __CFG_WDTE$OFF 0000                         _T1CON 0018                         _T2CON 001C  
                       _LATA0 0860                         _LATC2 0872                         _LATC3 0873  
                       _LATB6 086E                         i1l580 001A                         _TMR1H 0017  
                       _TMR1L 0016                         _TRISA 008C                         _TRISB 008D  
                       _TRISC 008E                         _WPUC2 1072              __end_of_OSC_Init 020F  
             __end_of_dpowers 0118                  _DAC_DISCRETE 005C                         ltemp0 007E  
                       ltemp1 0082                         ltemp2 0086                         ltemp3 0080  
                       ttemp0 007E                         ttemp1 0081                         ttemp2 0084  
                       ttemp3 0087                         ttemp4 007F                         status 0003  
                       wtemp0 007E                         wtemp1 0080                         wtemp2 0082  
                       wtemp3 0084                         wtemp4 0086                         wtemp5 0088  
                       wtemp6 007F               _TMR2_StartTimer 0219                __CFG_MCLRE$OFF 0000  
            ??_DAC_Initialize 0071               __initialization 0021                  __end_of_main 00F0  
     __end_of_TMR2_Initialize 01EA                __CFG_LPBOR$OFF 0000                  _COG1ASD0bits 069D  
                      ??_main 006C                __CFG_PLLEN$OFF 0000              ?_COG1_Initialize 0070  
                      _ADCON0 009D                        _ADCON1 009E                        _ADCON2 009F  
                      _CCP1M0 1498                        _CCP1M1 1499                        _CCP1M2 149A  
                      _CCP1M3 149B                        _ADRESH 009C                        _ADRESL 009B  
                      _CCPR1H 0292                        _CCPR2H 0299                        _CCPR1L 0291  
                      _CCPR2L 0298                        _AD_LSB 0059                __CFG_ZCDDIS$ON 0000  
                      _ANSELA 018C                        _ANSELB 018D                        _ANSELC 018E  
                      _DA_LSB 0023                        _T1GCON 0019                        _RC1REG 0199  
                      _RA2PPS 0E92                        _RA4PPS 0E94                        _RC1PPS 0EA1  
                      _RA5PPS 0E95                        _RC1STA 019D                        _RC2PPS 0EA2  
            ?_PWM1_Initialize 0070                        _FVRCON 0117                        _OSCCON 0099  
                      _TMR1IE 0488                        _TMR1IF 0088                        _TMR2IE 0489  
                      _TMR2IF 0089                        _TMR2ON 00E2                        _TX1REG 019A  
                      _TX1STA 019E                        _TRISA4 0464                        _TRISC1 0471  
                      _TRISA5 0465                        _TRISB6 046E                __CFG_PWRTE$OFF 0000  
            __end_of__powers_ 0166  _TMR1_DefaultInterruptHandler 0000                        _adcVal 006A  
              __CFG_STVREN$ON 0000              ?_PWM2_Initialize 0070       __end_of_TMR2_StartTimer 021C  
     __end_of__initialization 002C               _CMP1_Initialize 01BE                  ?_USART_Write 0070  
              __pcstackCOMMON 0070                     ?_OSC_Init 0070              ?_TMR2_Initialize 0070  
           ?_USART_Initialize 0070                _OPTION_REGbits 0095            ??_USART_Initialize 0071  
                  __pbssBANK0 004A              ??_FVR_Initialize 0071                    __pmaintext 0030  
             __CFG_PPS1WAY$ON 0000                    ??_OSC_Init 0071                    __pintentry 0004  
                     _CM1CON0 0111                       _CM1CON1 0112                       _CCP1CON 0293  
                     _CCP2CON 029A                       _COG1DBF 0696                       _COG1DBR 0695  
                     _COG1FIS 069B                       _COG1PHF 0692                       _COG1PHR 0691  
                     _COG1RIS 0699                       _COG1STR 069F       __size_of_ADC_Initialize 0009  
                     _SP1BRGH 019C                       _SP1BRGL 019B                       _OSCSTAT 009A  
                     _OSCTUNE 0098                       _PWM3DCH 0618                       _PWM3DCL 0617  
                     _PWM3CON 0619                       _PPSLOCK 0E0F       __end_of_CMP1_Initialize 01CB  
            ?_TMR2_StartTimer 0070                     _ADC_SCALE 0020             __end_of__npowers_ 013F  
                     __ptext1 0181                       __ptext2 01FC                       __ptext3 01CB  
                     __ptext4 01E1                       __ptext5 0219                       __ptext6 01D7  
                     __ptext7 01EA                       __ptext8 0209                       __ptext9 0215  
                   _T1CONbits 0018                       _dpowers 00F0                     _T2CONbits 001C  
                __size_of_isr 001B                     _CMOUTbits 0115                       clrloop0 0204  
        end_of_initialization 002C          __size_of_USART_Write 0007                  __pstringtext 00F0  
                  _timerValue 0079              __CFG_FOSC$INTOSC 0000              ?_CMP1_Initialize 0070  
    __size_of_COG1_Initialize 0018      __size_of_PWM1_Initialize 0009             __size_of_OSC_Init 0006  
              _ADC_Initialize 01F3       __size_of_DAC_Initialize 0006           start_initialization 0021  
    __size_of_PWM2_Initialize 000A                   __end_of_isr 001F     __size_of_USART_Initialize 000C  
                 _CCPTMRSbits 029E        __end_of_ADC_Initialize 01FC                   __pbssCOMMON 0077  
                   ___latbits 0002                 __pcstackBANK0 006C      __size_of_TMR2_Initialize 0009  
                   __pnvBANK0 0020             ??_COG1_Initialize 0071                     __npowers_ 0118  
             ?_ADC_Initialize 0070                      _DAC1CON0 0118                      _DAC1CON1 0119  
           ??_PWM1_Initialize 0071                      _BAUD1CON 019F                      _COG1ASD0 069D  
                    _COG1ASD1 069E                      _COG1BLKF 0694                      _COG1CON0 0697  
                    _COG1CON1 0698                      _COG1BLKR 0693                      _COG1FSIM 069C  
                    _COG1RSIM 069A             ??_PWM2_Initialize 0071                     clear_ram0 0203  
                    _PIE1bits 0091      __size_of_TMR2_StartTimer 0003         USART_WriteValue@F5508 004A  
                    _PIR1bits 0011                      _OSC_Init 0209                    _ADCON0bits 009D  
              _DAC_Initialize 020F       __size_of_FVR_Initialize 0004        USART_WriteString@_data 0072  
           ??_TMR2_Initialize 0071              _USART_Initialize 01CB                 ??_USART_Write 0071  
      __end_of_DAC_Initialize 0215         _TMR1_InterruptHandler 0068             _USART_WriteString 0181  
                    __ptext10 020F                      __ptext11 01A6                      __ptext12 01BE  
                    __ptext13 01F3                    _T1GCONbits 0019                      __powers_ 013F  
          ?_USART_WriteString 0072                 __size_of_main 00C0           ??_USART_WriteString 0074  
    __size_of_CMP1_Initialize 000D                    _RA4PPSbits 0E94                    _RA5PPSbits 0E95  
                  _RC1STAbits 019D                    _RC2PPSbits 0EA2                      int$flags 007E  
           ??_TMR2_StartTimer 0071           __end_of_USART_Write 0203               ?_DAC_Initialize 0070  
   __end_of_USART_WriteString 01A6                    _FVRCONbits 0117                      intlevel1 0000  
             _COG1_Initialize 01A6             __CFG_CLKOUTEN$OFF 0000                   _PPSLOCKbits 0E0F  
             _PWM1_Initialize 01EA              ??_ADC_Initialize 0071                _FVR_Initialize 0215  
             _PWM2_Initialize 01D7             USART_Write@txData 0071                   _USART_Write 01FC  
